///////////////////////////////////////////////////////////////////////////////
//
// IAR C/C++ Compiler V4.20.1.2260 for RL78               20/Dec/2020  22:38:15
// Copyright 2011-2019 IAR Systems AB.
// Network license: 192.10.10.205 (STD)
//
//    Core               =  s3
//    Calling convention =  v2
//    Code model         =  Near
//    Data model         =  Near
//                       =   
//    Source file        =
//        D:\Dheeraj\New folder\0. GDEV72 -
//        BootCode\source_code\source_files\dlms.c
//    Command line       =
//        -f C:\Users\laptop\AppData\Local\Temp\EW3FD8.tmp ("D:\Dheeraj\New
//        folder\0. GDEV72 - BootCode\source_code\source_files\dlms.c" --core
//        s3 --code_model near --calling_convention v2 --near_const_location
//        ram -o "D:\Dheeraj\New folder\0. GDEV72 - BootCode\Debug\Obj"
//        --dlib_config "C:\Program Files\IAR Systems\Embedded Workbench
//        8.4\rl78\LIB\DLib_Config_Normal.h" --double=32 -e -On --no_cse
//        --no_unroll --no_inline --no_code_motion --no_tbaa --no_cross_call
//        --no_scheduling --no_clustering --debug -lA "D:\Dheeraj\New folder\0.
//        GDEV72 - BootCode\Debug\List" -I "D:\Dheeraj\New folder\0. GDEV72 -
//        BootCode\source_code\driver_files\" -I "D:\Dheeraj\New folder\0.
//        GDEV72 - BootCode\source_code\library_files\" -I "D:\Dheeraj\New
//        folder\0. GDEV72 - BootCode\source_code\misc_files\" -I
//        "D:\Dheeraj\New folder\0. GDEV72 -
//        BootCode\source_code\source_files\" --data_model near)
//    Locale             =  C
//    List file          =
//        D:\Dheeraj\New folder\0. GDEV72 - BootCode\Debug\List\dlms.s
//
///////////////////////////////////////////////////////////////////////////////

        RTMODEL "__SystemLibrary", "DLib"
        RTMODEL "__calling_convention", "v2"
        RTMODEL "__code_model", "near"
        RTMODEL "__core", "s3"
        RTMODEL "__data_model", "near"
        RTMODEL "__dlib_file_descriptor", "0"
        RTMODEL "__dlib_version", "6"
        RTMODEL "__double_size", "32"
        RTMODEL "__far_rt_calls", "false"
        RTMODEL "__rt_version", "2"

        #define SHT_PROGBITS 0x1

        EXTERN _flag_eeprom_error
        EXTERN _Now
        EXTERN _opr_data
        EXTERN _cal_done_f
        EXTERN _MemoryStatus1
        EXTERN _MemoryStatus2
        EXTERN _OBJ_LIST
        EXTERN _MAX_BILL
        EXTERN _md_reset_count
        EXTERN _tpr
        EXTERN _md_type
        EXTERN _mdi_sel
        EXTERN _mdi_sel_ls
        EXTERN _bill_count
        EXTERN _TempTime
        EXTERN _METERING_MODE
        EXTERN _quadrant
        EXTERN _energy
        EXTERN _lsro_flag
        EXTERN _midnight_par_cnt
        EXTERN _midnight_roll_f
        EXTERN _COMPART_VOLTAGE_SIZE
        EXTERN _COMPART_VOLTAGE_ENTRIES
        EXTERN _COMPART_CURRENT_SIZE
        EXTERN _COMPART_CURRENT_ENTRIES
        EXTERN _COMPART_TRANSACTION_SIZE
        EXTERN _COMPART_TRANSACTION_ENTRIES
        EXTERN _COMPART_OTHERS_SIZE
        EXTERN _COMPART_OTHERS_ENTRIES
        EXTERN _TOP_RESTORE_REQ
        EXTERN _COMPART_NONROLLOVER_SIZE
        EXTERN _COMPART_NONROLLOVER_ENTRIES
        EXTERN _COMPART_POWERFAIL_ENTRIES
        EXTERN _active_calendar
        EXTERN _bill_hr
        EXTERN _bill_min
        EXTERN _bill_date
        EXTERN _KVAH_SNAP
        EXTERN _TOD_energy_config
        EXTERN _D_KVARH_REQ
        EXTERN _CUM_MAX_DEMAND
        EXTERN _FUENERGY_REQ
        EXTERN _BILLTPR_CNT
        EXTERN _MDRESET_TYPE_CONFIG
        EXTERN ?L_VSWITCH_L10
        EXTERN ?MEMCPY_NEAR
        EXTERN ?MEMCPY_SMALL_NEAR
        EXTERN ?SI_DIV_L02
        EXTERN ?SI_MOD_L02
        EXTERN ?UC_MOD_L01
        EXTERN _COMPART_CURRENT_END_ADD
        EXTERN _COMPART_CURRENT_START_ADD
        EXTERN _COMPART_NONROLLOVER_END_ADD
        EXTERN _COMPART_NONROLLOVER_START_ADD
        EXTERN _COMPART_OTHERS_END_ADD
        EXTERN _COMPART_OTHERS_START_ADD
        EXTERN _COMPART_POWERFAIL_END_ADD
        EXTERN _COMPART_POWERFAIL_START_ADD
        EXTERN _COMPART_TRANSACTION_END_ADD
        EXTERN _COMPART_TRANSACTION_START_ADD
        EXTERN _COMPART_VOLTAGE_END_ADD
        EXTERN _COMPART_VOLTAGE_START_ADD
        EXTERN _Sel_DailyLoadsurvey_buffer
        EXTERN _Sel_Loadsurvey_buffer
        EXTERN _Start_Info2
        EXTERN _Tarrif_script
        EXTERN __LLU2L
        EXTERN _angle
        EXTERN _app_con
        EXTERN _array
        EXTERN _asso_status
        EXTERN _auth_name
        EXTERN _bcd_to_decimal
        EXTERN _bill_buffer
        EXTERN _bill_profile_parameter_cap_obj
        EXTERN _bill_profile_parameter_scaler_buffer
        EXTERN _bill_profile_parameter_scaler_cap_obj
        EXTERN _blockload_survey_parameter_scaler_buffer
        EXTERN _blockload_survey_parameter_scaler_cap_obj
        EXTERN _buffer_instantaneous_parameter
        EXTERN _char_array_into_time4
        EXTERN _char_array_into_time5_sec
        EXTERN _cum_max_demand_kva
        EXTERN _cum_max_demand_kw
        EXTERN _curr
        EXTERN _current_event_capture_obj
        EXTERN _current_rating
        EXTERN _dailyload_profile_parameter_cap_obj
        EXTERN _dailyload_profile_parameter_scaler_buffer
        EXTERN _dailyload_profile_parameter_scaler_cap_obj
        EXTERN _date_time
        EXTERN _day_profile
        EXTERN _debug_event_capture_obj
        EXTERN _demand
        EXTERN _enum_d2
        EXTERN _eprom_read
        EXTERN _event_log_profile_scaler_buffer
        EXTERN _event_log_profile_scaler_cap_obj
        EXTERN _fill_0b
        EXTERN _fill_0d
        EXTERN _fill_firmware_version
        EXTERN _fill_manufacturer_name
        EXTERN _fill_meter_category
        EXTERN _fill_oprzero
        EXTERN _fill_pcb_firm_ver_calib_status
        EXTERN _fill_rtc_calib
        EXTERN _fill_utility_id
        EXTERN _fill_yr_of_manufacture
        EXTERN _flag1
        EXTERN _flag_metro1
        EXTERN _flag_quadrant
        EXTERN _flag_rtc2
        EXTERN _freq
        EXTERN _get_hr_energy
        EXTERN _hardware_testing_status
        EXTERN _info_l
        EXTERN _instantaneous_parameter_cap_obj
        EXTERN _instantaneous_parameter_scaler_buffer
        EXTERN _instantaneous_parameter_scaler_cap_obj
        EXTERN _int_into_char_array
        EXTERN _integer8
        EXTERN _load_survey_cnt
        EXTERN _load_survey_parameter_cap_obj
        EXTERN _log_name2
        EXTERN _logical_device_name
        EXTERN _long_int
        EXTERN _long_into_char_array3
        EXTERN _long_into_char_array4
        EXTERN _ls_count_dlms
        EXTERN _ls_count_local
        EXTERN _name_plate_buffer
        EXTERN _name_plate_profile_capture_obj
        EXTERN _non_rollover_event_capture_obj
        EXTERN _object_list
        EXTERN _octet_s
        EXTERN _other_event_capture_obj
        EXTERN _pf
        EXTERN _ph_ph
        EXTERN _power
        EXTERN _power_event_capture_obj
        EXTERN _power_off_min
        EXTERN _power_on_min
        EXTERN _profile_sel
        EXTERN _sap_assg_list
        EXTERN _save_tod_data
        EXTERN _sca_unit
        EXTERN _send_data
        EXTERN _send_type_multi
        EXTERN _seq_no_transaction
        EXTERN _signed_integer
        EXTERN _sort_object
        EXTERN _sort_object1
        EXTERN _sr_no_ascii
        EXTERN _structure
        EXTERN _tamper_compart
        EXTERN _tamper_instant_status
        EXTERN _temp_us32
        EXTERN _tpr_fill
        EXTERN _transaction_event_capture_obj
        EXTERN _unsigned8
        EXTERN _val_1byt
        EXTERN _val_2byt
        EXTERN _val_2byt2
        EXTERN _val_4byt2
        EXTERN _val_signed_4byt2
        EXTERN _vol
        EXTERN _voltage_event_capture_obj
        EXTERN _xdlms_type

        PUBLIC _CTR
        PUBLIC _Cntr_2Min
        PUBLIC _Data_block
        PUBLIC _FcsFlag
        PUBLIC _Format_type
        PUBLIC _PTR
        PUBLIC _UintLoadSurptr
        PUBLIC _UintLoadSurptr1
        PUBLIC _access_selector
        PUBLIC _analyse_cal_pkt_flag
        PUBLIC _ass_ser
        PUBLIC _asserr_flag
        PUBLIC _asso0_flag
        PUBLIC _asso1_flag
        PUBLIC _asso2_flag
        PUBLIC _asso3_flag
        PUBLIC _asso4_flag
        PUBLIC _assoG_flag
        PUBLIC _assresult_flag
        PUBLIC _attribute_id
        PUBLIC _aut_pswd
        PUBLIC _aut_pswd1
        PUBLIC _aut_pswd1_1
        PUBLIC _aut_pswd1_2
        PUBLIC _aut_pswd1_default
        PUBLIC _aut_pswd2
        PUBLIC _aut_pswd_default
        PUBLIC _auth_fill
        PUBLIC _battery_timeout
        PUBLIC _block_no
        PUBLIC _block_size
        PUBLIC _buffer_first_not_fill_f
        PUBLIC _buffer_scaler_filler
        PUBLIC _byte_cont
        PUBLIC _capture_objects_filler
        PUBLIC _char_array
        PUBLIC _char_array_ptr
        PUBLIC _class_id
        PUBLIC _cli_id
        PUBLIC _client_add
        PUBLIC _compart1
        PUBLIC _compartment3
        PUBLIC _compartment6
        PUBLIC _conf_blk
        PUBLIC _conf_err_flag
        PUBLIC _conf_ser_flag
        PUBLIC _conf_serror_flag
        PUBLIC _conf_type_flag
        PUBLIC _cont_field
        PUBLIC _conv
        PUBLIC _cosem_flag
        PUBLIC _data_array
        PUBLIC _decerr_flag
        PUBLIC _disp_test_pkt_flag
        PUBLIC _dlms_address
        PUBLIC _dlms_bill_no
        PUBLIC _dlms_bill_start
        PUBLIC _dlms_bill_stop
        PUBLIC _dlms_firm_ver
        PUBLIC _dlms_rece_flag
        PUBLIC _dls_count_dlms
        PUBLIC _element_filled
        PUBLIC _err_buf
        PUBLIC _err_flag
        PUBLIC _firm_rev
        PUBLIC _flag_communication
        PUBLIC _flag_hdlc1
        PUBLIC _flag_hdlc2
        PUBLIC _flag_hdlc3
        PUBLIC _flag_hdlc4
        PUBLIC _flag_optical
        PUBLIC _flag_rj45
        PUBLIC _four_pass_f
        PUBLIC _frame_type
        PUBLIC _frm_rcv_flg
        PUBLIC _from_cntr
        PUBLIC _from_days
        PUBLIC _from_ptr
        PUBLIC _from_val
        PUBLIC _get_resp
        PUBLIC _get_resp1
        PUBLIC _global_i
        PUBLIC _gsm_pkt_flag
        PUBLIC _gsm_signal_f
        PUBLIC _gsm_signal_strength
        PUBLIC _gsm_tr_f
        PUBLIC _i_dlms
        PUBLIC _info
        PUBLIC _info2
        PUBLIC _info_send
        PUBLIC _info_sended
        PUBLIC _info_sended_old
        PUBLIC _info_total
        PUBLIC _infore_flag
        PUBLIC _infose_flag
        PUBLIC _interframe_timeout
        PUBLIC _invo_prio
        PUBLIC _k
        PUBLIC _last_block
        PUBLIC _length
        PUBLIC _long_data
        PUBLIC _long_data1
        PUBLIC _max_info_rec
        PUBLIC _max_info_tra
        PUBLIC _max_win_rec
        PUBLIC _max_win_tra
        PUBLIC _meter_address
        PUBLIC _meter_type
        PUBLIC _multi_filling_f
        PUBLIC _multi_resp
        PUBLIC _no_bytes
        PUBLIC _no_obj
        PUBLIC _nrm_flag
        PUBLIC _obis_a
        PUBLIC _obis_b
        PUBLIC _obis_c
        PUBLIC _obis_code
        PUBLIC _obis_d
        PUBLIC _obis_e
        PUBLIC _obis_f
        PUBLIC _obis_short
        PUBLIC _obis_short_cal
        PUBLIC _one_byte_add_f
        PUBLIC _optical_f
        PUBLIC _p_fbit
        PUBLIC _packet_len
        PUBLIC _phdevice_add
        PUBLIC _phy_id
        PUBLIC _rcv_buf
        PUBLIC _rcv_buf1
        PUBLIC _rcv_cnt
        PUBLIC _rcv_cnt1
        PUBLIC _read_rtc_cnt
        PUBLIC _rec_flag
        PUBLIC _recv_buffer
        PUBLIC _req_cnt
        PUBLIC _req_cnt1
        PUBLIC _req_typ
        PUBLIC _rj45_disc_cnt
        PUBLIC _rj45_dm_buf
        PUBLIC _rj_disc_cnt
        PUBLIC _rj_disc_f
        PUBLIC _rj_disc_f2
        PUBLIC _rj_dm_buf
        PUBLIC _rj_f
        PUBLIC _rrr_c
        PUBLIC _rrr_c1
        PUBLIC _rrr_s
        PUBLIC _rx_timeout
        PUBLIC _scalar_cur
        PUBLIC _scalar_energy
        PUBLIC _scalar_vol
        PUBLIC _seg_flag
        PUBLIC _seg_flagsd
        PUBLIC _seg_type
        PUBLIC _sel_access_flag
        PUBLIC _sel_obj
        PUBLIC _sel_obj_tamper
        PUBLIC _selective_values_byte
        PUBLIC _send_type_multi_f
        PUBLIC _serial_no
        PUBLIC _server_add
        PUBLIC _server_lowerhi
        PUBLIC _server_lowerlow
        PUBLIC _server_upperhi
        PUBLIC _server_upperlow
        PUBLIC _sss_c
        PUBLIC _sss_c1
        PUBLIC _sss_s
        PUBLIC _tamper_data
        PUBLIC _tamper_status
        PUBLIC _to_cntr
        PUBLIC _to_days
        PUBLIC _to_ptr
        PUBLIC _to_val
        PUBLIC _trn_buf
        PUBLIC _trn_cnt
        PUBLIC _trn_cnt1
        PUBLIC _u8Lock_multi_transfer
        PUBLIC _utility_code
        PUBLIC _utility_id
        PUBLIC _y
        
          CFI Names cfiNames0
          CFI StackFrame CFA SP NEARDATA
          CFI Resource A:8, X:8, B:8, C:8, D:8, E:8, H:8, L:8, CS_REG:4, ES_REG:4
          CFI VirtualResource ?RET:20
          CFI Resource MACRH:16, MACRL:16, W0:8, W1:8, W2:8, W3:8, W4:8, W5:8
          CFI Resource W6:8, W7:8, W8:8, W9:8, W10:8, W11:8, W12:8, W13:8, W14:8
          CFI Resource W15:8, W16:8, W17:8, W18:8, W19:8, W20:8, W21:8, W22:8
          CFI Resource W23:8, W24:8, W25:8, W26:8, W27:8, W28:8, W29:8, W30:8
          CFI Resource W31:8, W32:8, W33:8, W34:8, W35:8, W36:8, W37:8, W38:8
          CFI Resource W39:8, W40:8, W41:8, W42:8, W43:8, W44:8, W45:8, W46:8
          CFI Resource W47:8, W48:8, W49:8, W50:8, W51:8, W52:8, W53:8, W54:8
          CFI Resource W55:8, W56:8, W57:8, W58:8, W59:8, W60:8, W61:8, W62:8
          CFI Resource W63:8, W64:8, W65:8, W66:8, W67:8, W68:8, W69:8, W70:8
          CFI Resource W71:8, W72:8, W73:8, W74:8, W75:8, W76:8, W77:8, W78:8
          CFI Resource W79:8, W80:8, W81:8, W82:8, W83:8, W84:8, W85:8, W86:8
          CFI Resource W87:8, W88:8, W89:8, W90:8, W91:8, W92:8, W93:8, W94:8
          CFI Resource W95:8, W96:8, W97:8, W98:8, W99:8, W100:8, W101:8, W102:8
          CFI Resource W103:8, W104:8, W105:8, W106:8, W107:8, W108:8, W109:8
          CFI Resource W110:8, W111:8, W112:8, W113:8, W114:8, W115:8, W116:8
          CFI Resource W117:8, W118:8, W119:8, W120:8, W121:8, W122:8, W123:8
          CFI Resource W124:8, W125:8, W126:8, W127:8, SP:16, ?SPH:4
          CFI EndNames cfiNames0
        
          CFI Common cfiCommon0 Using cfiNames0
          CFI CodeAlign 1
          CFI DataAlign 1
          CFI ReturnAddress ?RET CODE
          CFI CFA SP+4
          CFI A Undefined
          CFI X Undefined
          CFI B SameValue
          CFI C SameValue
          CFI D SameValue
          CFI E SameValue
          CFI H Undefined
          CFI L Undefined
          CFI CS_REG Undefined
          CFI ES_REG Undefined
          CFI ?RET Frame(CFA, -4)
          CFI MACRH Undefined
          CFI MACRL Undefined
          CFI W0 SameValue
          CFI W1 SameValue
          CFI W2 SameValue
          CFI W3 SameValue
          CFI W4 SameValue
          CFI W5 SameValue
          CFI W6 SameValue
          CFI W7 SameValue
          CFI W8 SameValue
          CFI W9 SameValue
          CFI W10 SameValue
          CFI W11 SameValue
          CFI W12 SameValue
          CFI W13 SameValue
          CFI W14 SameValue
          CFI W15 SameValue
          CFI W16 SameValue
          CFI W17 SameValue
          CFI W18 SameValue
          CFI W19 SameValue
          CFI W20 SameValue
          CFI W21 SameValue
          CFI W22 SameValue
          CFI W23 SameValue
          CFI W24 SameValue
          CFI W25 SameValue
          CFI W26 SameValue
          CFI W27 SameValue
          CFI W28 SameValue
          CFI W29 SameValue
          CFI W30 SameValue
          CFI W31 SameValue
          CFI W32 SameValue
          CFI W33 SameValue
          CFI W34 SameValue
          CFI W35 SameValue
          CFI W36 SameValue
          CFI W37 SameValue
          CFI W38 SameValue
          CFI W39 SameValue
          CFI W40 SameValue
          CFI W41 SameValue
          CFI W42 SameValue
          CFI W43 SameValue
          CFI W44 SameValue
          CFI W45 SameValue
          CFI W46 SameValue
          CFI W47 SameValue
          CFI W48 SameValue
          CFI W49 SameValue
          CFI W50 SameValue
          CFI W51 SameValue
          CFI W52 SameValue
          CFI W53 SameValue
          CFI W54 SameValue
          CFI W55 SameValue
          CFI W56 SameValue
          CFI W57 SameValue
          CFI W58 SameValue
          CFI W59 SameValue
          CFI W60 SameValue
          CFI W61 SameValue
          CFI W62 SameValue
          CFI W63 SameValue
          CFI W64 SameValue
          CFI W65 SameValue
          CFI W66 SameValue
          CFI W67 SameValue
          CFI W68 SameValue
          CFI W69 SameValue
          CFI W70 SameValue
          CFI W71 SameValue
          CFI W72 SameValue
          CFI W73 SameValue
          CFI W74 SameValue
          CFI W75 SameValue
          CFI W76 SameValue
          CFI W77 SameValue
          CFI W78 SameValue
          CFI W79 SameValue
          CFI W80 SameValue
          CFI W81 SameValue
          CFI W82 SameValue
          CFI W83 SameValue
          CFI W84 SameValue
          CFI W85 SameValue
          CFI W86 SameValue
          CFI W87 SameValue
          CFI W88 SameValue
          CFI W89 SameValue
          CFI W90 SameValue
          CFI W91 SameValue
          CFI W92 SameValue
          CFI W93 SameValue
          CFI W94 SameValue
          CFI W95 SameValue
          CFI W96 SameValue
          CFI W97 SameValue
          CFI W98 SameValue
          CFI W99 SameValue
          CFI W100 SameValue
          CFI W101 SameValue
          CFI W102 SameValue
          CFI W103 SameValue
          CFI W104 SameValue
          CFI W105 SameValue
          CFI W106 SameValue
          CFI W107 SameValue
          CFI W108 SameValue
          CFI W109 SameValue
          CFI W110 SameValue
          CFI W111 SameValue
          CFI W112 SameValue
          CFI W113 SameValue
          CFI W114 SameValue
          CFI W115 SameValue
          CFI W116 SameValue
          CFI W117 SameValue
          CFI W118 SameValue
          CFI W119 SameValue
          CFI W120 SameValue
          CFI W121 SameValue
          CFI W122 SameValue
          CFI W123 SameValue
          CFI W124 SameValue
          CFI W125 SameValue
          CFI W126 SameValue
          CFI W127 SameValue
          CFI ?SPH Undefined
          CFI EndCommon cfiCommon0
        
        
          CFI Common cfiCommon1 Using cfiNames0
          CFI CodeAlign 1
          CFI DataAlign 1
          CFI ReturnAddress ?RET CODE
          CFI CFA SP+4
          CFI A Undefined
          CFI X Undefined
          CFI B Undefined
          CFI C Undefined
          CFI D SameValue
          CFI E SameValue
          CFI H Undefined
          CFI L Undefined
          CFI CS_REG Undefined
          CFI ES_REG Undefined
          CFI ?RET Frame(CFA, -4)
          CFI MACRH Undefined
          CFI MACRL Undefined
          CFI W0 SameValue
          CFI W1 SameValue
          CFI W2 SameValue
          CFI W3 SameValue
          CFI W4 SameValue
          CFI W5 SameValue
          CFI W6 SameValue
          CFI W7 SameValue
          CFI W8 SameValue
          CFI W9 SameValue
          CFI W10 SameValue
          CFI W11 SameValue
          CFI W12 SameValue
          CFI W13 SameValue
          CFI W14 SameValue
          CFI W15 SameValue
          CFI W16 SameValue
          CFI W17 SameValue
          CFI W18 SameValue
          CFI W19 SameValue
          CFI W20 SameValue
          CFI W21 SameValue
          CFI W22 SameValue
          CFI W23 SameValue
          CFI W24 SameValue
          CFI W25 SameValue
          CFI W26 SameValue
          CFI W27 SameValue
          CFI W28 SameValue
          CFI W29 SameValue
          CFI W30 SameValue
          CFI W31 SameValue
          CFI W32 SameValue
          CFI W33 SameValue
          CFI W34 SameValue
          CFI W35 SameValue
          CFI W36 SameValue
          CFI W37 SameValue
          CFI W38 SameValue
          CFI W39 SameValue
          CFI W40 SameValue
          CFI W41 SameValue
          CFI W42 SameValue
          CFI W43 SameValue
          CFI W44 SameValue
          CFI W45 SameValue
          CFI W46 SameValue
          CFI W47 SameValue
          CFI W48 SameValue
          CFI W49 SameValue
          CFI W50 SameValue
          CFI W51 SameValue
          CFI W52 SameValue
          CFI W53 SameValue
          CFI W54 SameValue
          CFI W55 SameValue
          CFI W56 SameValue
          CFI W57 SameValue
          CFI W58 SameValue
          CFI W59 SameValue
          CFI W60 SameValue
          CFI W61 SameValue
          CFI W62 SameValue
          CFI W63 SameValue
          CFI W64 SameValue
          CFI W65 SameValue
          CFI W66 SameValue
          CFI W67 SameValue
          CFI W68 SameValue
          CFI W69 SameValue
          CFI W70 SameValue
          CFI W71 SameValue
          CFI W72 SameValue
          CFI W73 SameValue
          CFI W74 SameValue
          CFI W75 SameValue
          CFI W76 SameValue
          CFI W77 SameValue
          CFI W78 SameValue
          CFI W79 SameValue
          CFI W80 SameValue
          CFI W81 SameValue
          CFI W82 SameValue
          CFI W83 SameValue
          CFI W84 SameValue
          CFI W85 SameValue
          CFI W86 SameValue
          CFI W87 SameValue
          CFI W88 SameValue
          CFI W89 SameValue
          CFI W90 SameValue
          CFI W91 SameValue
          CFI W92 SameValue
          CFI W93 SameValue
          CFI W94 SameValue
          CFI W95 SameValue
          CFI W96 SameValue
          CFI W97 SameValue
          CFI W98 SameValue
          CFI W99 SameValue
          CFI W100 SameValue
          CFI W101 SameValue
          CFI W102 SameValue
          CFI W103 SameValue
          CFI W104 SameValue
          CFI W105 SameValue
          CFI W106 SameValue
          CFI W107 SameValue
          CFI W108 SameValue
          CFI W109 SameValue
          CFI W110 SameValue
          CFI W111 SameValue
          CFI W112 SameValue
          CFI W113 SameValue
          CFI W114 SameValue
          CFI W115 SameValue
          CFI W116 SameValue
          CFI W117 SameValue
          CFI W118 SameValue
          CFI W119 SameValue
          CFI W120 SameValue
          CFI W121 SameValue
          CFI W122 SameValue
          CFI W123 SameValue
          CFI W124 SameValue
          CFI W125 SameValue
          CFI W126 SameValue
          CFI W127 SameValue
          CFI ?SPH Undefined
          CFI EndCommon cfiCommon1
        
// D:\Dheeraj\New folder\0. GDEV72 - BootCode\source_code\source_files\dlms.c
//    1 #include "dlms.h"

        SECTION `.data`:DATA:REORDER:NOROOT(1)
//    2 const uint8_t firm_rev[2]= {0xE0, 0x20};
_firm_rev:
        DATA8
        DB 224, 32

        SECTION `.data`:DATA:REORDER:NOROOT(1)
//    3 const uint8_t utility_code[4]= {'G', 'S', 'T', 'G'};
_utility_code:
        DATA8
        DB 71, 83, 84, 71

        SECTION `.data`:DATA:REORDER:NOROOT(1)
//    4 const uint8_t aut_pswd_default[8]= {0x31, 0x41, 0x32, 0x42, 0x33, 0x43, 0x34, 0x44};
_aut_pswd_default:
        DATA8
        DB 49, 65, 50, 66, 51, 67, 52, 68

        SECTION `.data`:DATA:REORDER:NOROOT(1)
//    5 const uint8_t aut_pswd1_default[16]= {'d', 'l', 'm', 's', 'p', 'a', 's', 's', 'w', 'o', 'r', 'd', '1', '2', '3', '4'};
_aut_pswd1_default:
        DATA8
        DB 100, 108, 109, 115, 112, 97, 115, 115, 119, 111, 114, 100, 49, 50
        DB 51, 52
//    6 
//    7 
//    8 /* Variables */

        SECTION `.bss`:DATA:REORDER:NOROOT(1)
//    9 uint8_t dlms_firm_ver[8];
_dlms_firm_ver:
        DS 8

        SECTION `.bss`:DATA:REORDER:NOROOT(0)
//   10 uint8_t gsm_signal_f,gsm_tr_f,gsm_pkt_flag;
_gsm_signal_f:
        DS 1

        SECTION `.bss`:DATA:REORDER:NOROOT(0)
_gsm_tr_f:
        DS 1

        SECTION `.bss`:DATA:REORDER:NOROOT(0)
_gsm_pkt_flag:
        DS 1

        SECTION `.bss`:DATA:REORDER:NOROOT(1)
//   11 uint8_t gsm_signal_strength[2];
_gsm_signal_strength:
        DS 2

        SECTION `.bss`:DATA:REORDER:NOROOT(0)
//   12 uint8_t dlms_bill_start, dlms_bill_stop, dlms_bill_no;
_dlms_bill_start:
        DS 1

        SECTION `.bss`:DATA:REORDER:NOROOT(0)
_dlms_bill_stop:
        DS 1

        SECTION `.bss`:DATA:REORDER:NOROOT(0)
_dlms_bill_no:
        DS 1

        SECTION `.bss`:DATA:REORDER:NOROOT(0)
//   13 uint8_t dlms_rece_flag= 0, rec_flag= 0, err_flag= 0;
_dlms_rece_flag:
        DS 1

        SECTION `.bss`:DATA:REORDER:NOROOT(0)
_rec_flag:
        DS 1

        SECTION `.bss`:DATA:REORDER:NOROOT(0)
_err_flag:
        DS 1

        SECTION `.bss`:DATA:REORDER:NOROOT(0)
//   14 uint8_t server_upperlow;
_server_upperlow:
        DS 1

        SECTION `.bss`:DATA:REORDER:NOROOT(0)
//   15 uint8_t server_lowerlow;
_server_lowerlow:
        DS 1

        SECTION `.bss`:DATA:REORDER:NOROOT(0)
//   16 uint8_t server_upperhi;
_server_upperhi:
        DS 1

        SECTION `.bss`:DATA:REORDER:NOROOT(0)
//   17 uint8_t server_lowerhi;
_server_lowerhi:
        DS 1
//   18 uint8_t client_add;

        SECTION `.bss`:DATA:REORDER:NOROOT(0)
//   19 uint8_t one_byte_add_f;
_one_byte_add_f:
        DS 1

        SECTION `.bss`:DATA:REORDER:NOROOT(1)
//   20 uint16_t phdevice_add;
_phdevice_add:
        DS 2
//   21 uint16_t byte_cont;
//   22 uint8_t seg_type;
//   23 uint8_t length;
//   24 uint16_t rrr_c;
//   25 uint16_t rrr_s;
//   26 uint16_t rrr_c1;
//   27 uint16_t sss_c;
//   28 uint16_t sss_c1;
//   29 uint16_t sss_s;
//   30 uint8_t cont_field;
//   31 uint16_t frame_type;

        SECTION `.bss`:DATA:REORDER:NOROOT(1)
//   32 uint16_t meter_address;
_meter_address:
        DS 2
//   33 uint16_t info_total; /* int */

        SECTION `.bss`:DATA:REORDER:NOROOT(1)
//   34 uint16_t p_fbit;
_p_fbit:
        DS 2

        SECTION `.bss`:DATA:REORDER:NOROOT(1)
//   35 uint8_t info[DLMS_MAX_BUFF_SIZE];
_info:
        DS 512

        SECTION `.bss`:DATA:REORDER:NOROOT(0)
//   36 uint8_t infore_flag;
_infore_flag:
        DS 1

        SECTION `.bss`:DATA:REORDER:NOROOT(0)
//   37 uint8_t infose_flag;
_infose_flag:
        DS 1

        SECTION `.bss`:DATA:REORDER:NOROOT(0)
//   38 uint8_t decerr_flag;
_decerr_flag:
        DS 1

        SECTION `.bss`:DATA:REORDER:NOROOT(0)
//   39 uint8_t nrm_flag;
_nrm_flag:
        DS 1

        SECTION `.bss`:DATA:REORDER:NOROOT(0)
//   40 uint8_t seg_flag;
_seg_flag:
        DS 1

        SECTION `.bss`:DATA:REORDER:NOROOT(0)
//   41 uint8_t seg_flagsd;
_seg_flagsd:
        DS 1
//   42 uint16_t max_win_rec;
//   43 uint16_t max_win_tra;
//   44 uint16_t max_info_rec;
//   45 uint16_t max_info_tra;
//   46 uint8_t req_typ;

        SECTION `.bss`:DATA:REORDER:NOROOT(0)
//   47 uint8_t asserr_flag;
_asserr_flag:
        DS 1

        SECTION `.bss`:DATA:REORDER:NOROOT(0)
//   48 uint8_t ass_ser;
_ass_ser:
        DS 1

        SECTION `.data`:DATA:REORDER:NOROOT(1)
//   49 uint8_t conf_blk[3]= {0x00, 0x00, 0x10};
_conf_blk:
        DATA8
        DB 0, 0, 16, 0

        SECTION `.bss`:DATA:REORDER:NOROOT(0)
//   50 uint8_t optical_f, rj_f;
_optical_f:
        DS 1

        SECTION `.bss`:DATA:REORDER:NOROOT(0)
_rj_f:
        DS 1

        SECTION `.bss`:DATA:REORDER:NOROOT(0)
//   51 uint8_t rj_disc_f, rj_disc_f2;
_rj_disc_f:
        DS 1

        SECTION `.bss`:DATA:REORDER:NOROOT(0)
_rj_disc_f2:
        DS 1

        SECTION `.bss`:DATA:REORDER:NOROOT(0)
//   52 uint8_t assresult_flag;
_assresult_flag:
        DS 1

        SECTION `.bss`:DATA:REORDER:NOROOT(0)
//   53 uint8_t conf_ser_flag;
_conf_ser_flag:
        DS 1

        SECTION `.bss`:DATA:REORDER:NOROOT(0)
//   54 uint8_t conf_err_flag;
_conf_err_flag:
        DS 1

        SECTION `.bss`:DATA:REORDER:NOROOT(0)
//   55 uint8_t conf_type_flag;
_conf_type_flag:
        DS 1

        SECTION `.bss`:DATA:REORDER:NOROOT(0)
//   56 uint8_t conf_serror_flag;
_conf_serror_flag:
        DS 1

        SECTION `.bss`:DATA:REORDER:NOROOT(0)
//   57 uint8_t cosem_flag;
_cosem_flag:
        DS 1

        SECTION `.bss`:DATA:REORDER:NOROOT(1)
//   58 uint8_t obis_code[6];
_obis_code:
        DS 6

        SECTION `.bss`:DATA:REORDER:NOROOT(0)
//   59 uint8_t attribute_id;
_attribute_id:
        DS 1

        SECTION `.bss`:DATA:REORDER:NOROOT(0)
//   60 uint8_t invo_prio;
_invo_prio:
        DS 1

        SECTION `.bss`:DATA:REORDER:NOROOT(1)
//   61 uint16_t class_id;
_class_id:
        DS 2

        SECTION `.bss`:DATA:REORDER:NOROOT(1)
//   62 uint16_t long_data;
_long_data:
        DS 2

        SECTION `.bss`:DATA:REORDER:NOROOT(1)
//   63 uint16_t long_data1;
_long_data1:
        DS 2

        SECTION `.bss`:DATA:REORDER:NOROOT(0)
//   64 uint8_t asso0_flag;
_asso0_flag:
        DS 1

        SECTION `.bss`:DATA:REORDER:NOROOT(0)
//   65 uint8_t asso1_flag;
_asso1_flag:
        DS 1

        SECTION `.bss`:DATA:REORDER:NOROOT(0)
//   66 uint8_t asso2_flag;
_asso2_flag:
        DS 1

        SECTION `.bss`:DATA:REORDER:NOROOT(0)
//   67 uint8_t asso3_flag;
_asso3_flag:
        DS 1

        SECTION `.bss`:DATA:REORDER:NOROOT(0)
//   68 uint8_t asso4_flag;
_asso4_flag:
        DS 1

        SECTION `.bss`:DATA:REORDER:NOROOT(0)
//   69 uint8_t assoG_flag;
_assoG_flag:
        DS 1

        SECTION `.bss`:DATA:REORDER:NOROOT(1)
//   70 uint16_t phy_id;
_phy_id:
        DS 2

        SECTION `.bss`:DATA:REORDER:NOROOT(1)
//   71 uint16_t cli_id;
_cli_id:
        DS 2

        SECTION `.bss`:DATA:REORDER:NOROOT(0)
//   72 uint8_t y= 0;
_y:
        DS 1

        SECTION `.bss`:DATA:REORDER:NOROOT(1)
//   73 uint16_t k= 0;
_k:
        DS 2
//   74 /* uint16_t j=0; */

        SECTION `.bss`:DATA:REORDER:NOROOT(1)
//   75 uint16_t Cntr_2Min= 0;
_Cntr_2Min:
        DS 2

        SECTION `.bss`:DATA:REORDER:NOROOT(1)
//   76 uint16_t FcsFlag= 0;
_FcsFlag:
        DS 2

        SECTION `.bss`:DATA:REORDER:NOROOT(0)
//   77 uint8_t frm_rcv_flg= 0;
_frm_rcv_flg:
        DS 1
//   78 uint8_t data_array[10];

        SECTION `.bss`:DATA:REORDER:NOROOT(1)
//   79 uint8_t recv_buffer[8];
_recv_buffer:
        DS 8

        SECTION `.bss`:DATA:REORDER:NOROOT(1)
//   80 uint16_t rcv_cnt= 0;
_rcv_cnt:
        DS 2

        SECTION `.bss`:DATA:REORDER:NOROOT(1)
//   81 uint16_t rcv_cnt1= 0;
_rcv_cnt1:
        DS 2

        SECTION `.bss`:DATA:REORDER:NOROOT(1)
//   82 uint8_t rcv_buf[DLMS_MAX_BUFF_SIZE + 14]; /* update by dinesh */
_rcv_buf:
        DS 526
//   83 uint8_t rcv_buf1[150];                    /* this is used in simultaneous communication- */

        SECTION `.bss`:DATA:REORDER:NOROOT(0)
//   84 uint8_t err_buf= 0x00;
_err_buf:
        DS 1

        SECTION `.bss`:DATA:REORDER:NOROOT(1)
//   85 uint8_t trn_buf[DLMS_MAX_BUFF_SIZE + 14]; /* update by dinesh */
_trn_buf:
        DS 526

        SECTION `.bss`:DATA:REORDER:NOROOT(1)
//   86 uint16_t trn_cnt= 0;
_trn_cnt:
        DS 2

        SECTION `.bss`:DATA:REORDER:NOROOT(1)
//   87 uint16_t req_cnt= 0;
_req_cnt:
        DS 2

        SECTION `.bss`:DATA:REORDER:NOROOT(1)
//   88 uint16_t trn_cnt1= 0;
_trn_cnt1:
        DS 2

        SECTION `.bss`:DATA:REORDER:NOROOT(1)
//   89 uint16_t req_cnt1= 0;
_req_cnt1:
        DS 2

        SECTION `.bss`:DATA:REORDER:NOROOT(1)
//   90 uint8_t rj_dm_buf[12];
_rj_dm_buf:
        DS 12
//   91 uint16_t interframe_timeout;

        SECTION `.bss`:DATA:REORDER:NOROOT(0)
//   92 uint8_t sel_access_flag, access_selector, from_val[5], to_val[5], sel_obj[15], no_obj, to_cntr, from_cntr, no_bytes;
_sel_access_flag:
        DS 1

        SECTION `.bss`:DATA:REORDER:NOROOT(0)
_access_selector:
        DS 1

        SECTION `.bss`:DATA:REORDER:NOROOT(1)
_from_val:
        DS 6

        SECTION `.bss`:DATA:REORDER:NOROOT(1)
_to_val:
        DS 6

        SECTION `.bss`:DATA:REORDER:NOROOT(1)
_sel_obj:
        DS 16

        SECTION `.bss`:DATA:REORDER:NOROOT(0)
_no_obj:
        DS 1

        SECTION `.bss`:DATA:REORDER:NOROOT(0)
_to_cntr:
        DS 1

        SECTION `.bss`:DATA:REORDER:NOROOT(0)
_from_cntr:
        DS 1

        SECTION `.bss`:DATA:REORDER:NOROOT(0)
_no_bytes:
        DS 1
//   93 

        SECTION `.bss`:DATA:REORDER:NOROOT(1)
//   94 uint16_t to_days, from_days;
_to_days:
        DS 2

        SECTION `.bss`:DATA:REORDER:NOROOT(1)
_from_days:
        DS 2

        SECTION `.bss`:DATA:REORDER:NOROOT(0)
//   95 uint8_t rj_disc_cnt;
_rj_disc_cnt:
        DS 1

        SECTION `.bss`:DATA:REORDER:NOROOT(0)
//   96 uint8_t read_rtc_cnt;
_read_rtc_cnt:
        DS 1

        SECTION `.bss`:DATA:REORDER:NOROOT(1)
//   97 uint16_t tamper_data;
_tamper_data:
        DS 2

        SECTION `.bss`:DATA:REORDER:NOROOT(1)
//   98 uint16_t compart1;
_compart1:
        DS 2

        SECTION `.bss`:DATA:REORDER:NOROOT(1)
//   99 uint8_t aut_pswd[8];
_aut_pswd:
        DS 8

        SECTION `.bss`:DATA:REORDER:NOROOT(1)
//  100 uint8_t aut_pswd1[16];
_aut_pswd1:
        DS 16

        SECTION `.bss`:DATA:REORDER:NOROOT(1)
//  101 uint16_t block_no;
_block_no:
        DS 2
//  102 uint16_t info_sended;
//  103 uint16_t info_send;
//  104 uint16_t packet_len;
//  105 uint8_t Format_type;
//  106 uint8_t server_add[4];

        SECTION `.bss`:DATA:REORDER:NOROOT(0)
//  107 uint8_t send_type_multi_f, multi_filling_f, buffer_first_not_fill_f;
_send_type_multi_f:
        DS 1

        SECTION `.bss`:DATA:REORDER:NOROOT(0)
_multi_filling_f:
        DS 1

        SECTION `.bss`:DATA:REORDER:NOROOT(0)
_buffer_first_not_fill_f:
        DS 1

        SECTION `.bss`:DATA:REORDER:NOROOT(1)
//  108 uint16_t element_filled;
_element_filled:
        DS 2

        SECTION `.bss`:DATA:REORDER:NOROOT(0)
//  109 uint8_t u8Lock_multi_transfer, multi_resp;
_u8Lock_multi_transfer:
        DS 1

        SECTION `.bss`:DATA:REORDER:NOROOT(0)
_multi_resp:
        DS 1

        SECTION `.bss`:DATA:REORDER:NOROOT(1)
//  110 uint32_t obis_short;
_obis_short:
        DS 4

        SECTION `.bss`:DATA:REORDER:NOROOT(1)
//  111 uint16_t i_dlms;
_i_dlms:
        DS 2

        SECTION `.bss`:DATA:REORDER:NOROOT(0)
//  112 uint8_t selective_values_byte;
_selective_values_byte:
        DS 1

        SECTION `.bss`:DATA:REORDER:NOROOT(1)
//  113 uint16_t dlms_address;
_dlms_address:
        DS 2

        SECTION `.bss`:DATA:REORDER:NOROOT(1)
//  114 uint16_t dls_count_dlms, UintLoadSurptr1;
_dls_count_dlms:
        DS 2

        SECTION `.bss`:DATA:REORDER:NOROOT(1)
_UintLoadSurptr1:
        DS 2

        SECTION `.bss`:DATA:REORDER:NOROOT(1)
//  115 uint16_t UintLoadSurptr;
_UintLoadSurptr:
        DS 2

        SECTION `.bss`:DATA:REORDER:NOROOT(1)
//  116 us8 rj45_dm_buf[12];
_rj45_dm_buf:
        DS 12
//  117 us16 rcv_cnt,rcv_cnt1,trn_cnt,trn_cnt1,req_cnt,req_cnt1;

        SECTION `.bss`:DATA:REORDER:NOROOT(1)
//  118 us16 interframe_timeout,Cntr_2Min;
_interframe_timeout:
        DS 2

        SECTION `.bss`:DATA:REORDER:NOROOT(1)
//  119 us16 rrr_c,rrr_s,rrr_c1,sss_c,sss_c1,sss_s;
_rrr_c:
        DS 2

        SECTION `.bss`:DATA:REORDER:NOROOT(1)
_rrr_s:
        DS 2

        SECTION `.bss`:DATA:REORDER:NOROOT(1)
_rrr_c1:
        DS 2

        SECTION `.bss`:DATA:REORDER:NOROOT(1)
_sss_c:
        DS 2

        SECTION `.bss`:DATA:REORDER:NOROOT(1)
_sss_c1:
        DS 2

        SECTION `.bss`:DATA:REORDER:NOROOT(1)
_sss_s:
        DS 2

        SECTION `.bss`:DATA:REORDER:NOROOT(1)
//  120 us8 rcv_buf1[150];                    /* this is used in simultaneous communication- */
_rcv_buf1:
        DS 150
//  121 us8 rx_timeout,battery_timeout;

        SECTION `.bss`:DATA:REORDER:NOROOT(1)
//  122 us8 data_array[10];
_data_array:
        DS 10

        SECTION `.bss`:DATA:REORDER:NOROOT(0)
//  123 us8 rj45_disc_cnt;
_rj45_disc_cnt:
        DS 1

        SECTION `.bss`:DATA:REORDER:NOROOT(0)
//  124 us8 cont_field;
_cont_field:
        DS 1

        SECTION `.bss`:DATA:REORDER:NOROOT(1)
//  125 us16 frame_type;
_frame_type:
        DS 2

        SECTION `.bss`:DATA:REORDER:NOROOT(0)
//  126 us8 client_add,req_typ;
_client_add:
        DS 1

        SECTION `.bss`:DATA:REORDER:NOROOT(0)
_req_typ:
        DS 1

        SECTION `.bss`:DATA:REORDER:NOROOT(1)
//  127 us8 server_add[4];
_server_add:
        DS 4

        SECTION `.bss`:DATA:REORDER:NOROOT(0)
//  128 us8 length,seg_type;
_length:
        DS 1

        SECTION `.bss`:DATA:REORDER:NOROOT(0)
_seg_type:
        DS 1

        SECTION `.bss`:DATA:REORDER:NOROOT(1)
//  129 us16 info_sended,info_sended_old,info_total,k,byte_cont,max_info_rec,max_info_tra,max_win_rec,max_win_tra,info_send;
_info_sended:
        DS 2

        SECTION `.bss`:DATA:REORDER:NOROOT(1)
_info_sended_old:
        DS 2

        SECTION `.bss`:DATA:REORDER:NOROOT(1)
_info_total:
        DS 2

        SECTION `.bss`:DATA:REORDER:NOROOT(1)
_byte_cont:
        DS 2

        SECTION `.bss`:DATA:REORDER:NOROOT(1)
_max_info_rec:
        DS 2

        SECTION `.bss`:DATA:REORDER:NOROOT(1)
_max_info_tra:
        DS 2

        SECTION `.bss`:DATA:REORDER:NOROOT(1)
_max_win_rec:
        DS 2

        SECTION `.bss`:DATA:REORDER:NOROOT(1)
_max_win_tra:
        DS 2

        SECTION `.bss`:DATA:REORDER:NOROOT(1)
_info_send:
        DS 2
//  130 us8 conf_blk[3];

        SECTION `.bss`:DATA:REORDER:NOROOT(1)
//  131 us16 packet_len;
_packet_len:
        DS 2

        SECTION `.bss`:DATA:REORDER:NOROOT(0)
//  132 us8 Format_type;
_Format_type:
        DS 1

        SECTION `.bss`:DATA:REORDER:NOROOT(1)
//  133 uint8_t char_array[4];
_char_array:
        DS 4

        SECTION `.bss`:DATA:REORDER:NOROOT(1)
//  134 uint16_t PTR;
_PTR:
        DS 2

        SECTION `.bss`:DATA:REORDER:NOROOT(1)
//  135 uint16_t CTR;
_CTR:
        DS 2

        SECTION `.bss`:DATA:REORDER:NOROOT(1)
//  136 uint8_t *char_array_ptr;
_char_array_ptr:
        DS 2

        SECTION `.bss`:DATA:REORDER:NOROOT(0)
//  137 uint8_t scalar_energy, scalar_cur, scalar_vol;
_scalar_energy:
        DS 1

        SECTION `.bss`:DATA:REORDER:NOROOT(0)
_scalar_cur:
        DS 1

        SECTION `.bss`:DATA:REORDER:NOROOT(0)
_scalar_vol:
        DS 1

        SECTION `.bss`:DATA:REORDER:NOROOT(0)
//  138 us8 rx_timeout,battery_timeout;
_rx_timeout:
        DS 1

        SECTION `.bss`:DATA:REORDER:NOROOT(0)
_battery_timeout:
        DS 1

        SECTION `.bss`:DATA:REORDER:NOROOT(0)
//  139 us8 analyse_cal_pkt_flag,disp_test_pkt_flag;
_analyse_cal_pkt_flag:
        DS 1

        SECTION `.bss`:DATA:REORDER:NOROOT(0)
_disp_test_pkt_flag:
        DS 1

        SECTION `.bss`:DATA:REORDER:NOROOT(0)
//  140 uint8_t last_block;
_last_block:
        DS 1

        SECTION `.bss`:DATA:REORDER:NOROOT(1)
//  141 us16 global_i;
_global_i:
        DS 2

        SECTION `.bss`:DATA:REORDER:NOROOT(1)
//  142 uint16_t from_ptr, to_ptr;
_from_ptr:
        DS 2

        SECTION `.bss`:DATA:REORDER:NOROOT(1)
_to_ptr:
        DS 2

        SECTION `.bss`:DATA:REORDER:NOROOT(1)
//  143 us8 sel_obj_tamper[13];  
_sel_obj_tamper:
        DS 14

        SECTION `.bss`:DATA:REORDER:NOROOT(1)
//  144 uint8_t serial_no[13];
_serial_no:
        DS 14

        SECTION `.bss`:DATA:REORDER:NOROOT(1)
//  145 uint8_t meter_type[2];
_meter_type:
        DS 2

        SECTION `.bss`:DATA:REORDER:NOROOT(1)
//  146 uint8_t utility_id[4];
_utility_id:
        DS 4

        SECTION `.bss`:DATA:REORDER:NOROOT(1)
//  147 uint8_t info2[200];
_info2:
        DS 200

        SECTION `.bss`:DATA:REORDER:NOROOT(0)
//  148 uint8_t four_pass_f;
_four_pass_f:
        DS 1

        SECTION `.bss`:DATA:REORDER:NOROOT(0)
//  149 uint8_t block_size;
_block_size:
        DS 1

        SECTION `.bss`:DATA:REORDER:NOROOT(1)
//  150 uint8_t conv[4];
_conv:
        DS 4

        SECTION `.data`:DATA:REORDER:NOROOT(0)
//  151 uint8_t Data_block= 0x01;
_Data_block:
        DATA8
        DB 1

        SECTION `.bss`:DATA:REORDER:NOROOT(1)
//  152 uint8_t aut_pswd1_1[16];
_aut_pswd1_1:
        DS 16

        SECTION `.data`:DATA:REORDER:NOROOT(1)
//  153 uint8_t aut_pswd1_2[16]= {0x5f, 0x5f, 0x44, 0x4c, 0x4d, 0x53, 0x2d, 0x45, 0x78, 0x70, 0x6c, 0x6f, 0x72, 0x65, 0x72, 0x5f};
_aut_pswd1_2:
        DATA8
        DB 95, 95, 68, 76, 77, 83, 45, 69, 120, 112, 108, 111, 114, 101, 114
        DB 95
//  154 /* {'i','j','k','l','m','n','o','p','q','r','s','t','u','v','w','x'}; */

        SECTION `.data`:DATA:REORDER:NOROOT(1)
//  155 us8 const aut_pswd2[8]= {'1','A','2','B','3','D','D','D'};
_aut_pswd2:
        DATA8
        DB 49, 65, 50, 66, 51, 68, 68, 68

        SECTION `.data`:DATA:REORDER:NOROOT(1)
//  156 us8 const auth_fill[]= {0x00, 0x02, 0x07, 0x11, 0x02, 0x11, 0x10, 0x12, 0x02, 0xf4, 0x11, 0x05, 0x11, 0x08};
_auth_fill:
        DATA8
        DB 0, 2, 7, 17, 2, 17, 16, 18, 2, 244, 17, 5, 17, 8

        SECTION `.data`:DATA:REORDER:NOROOT(0)
        SECTION_TYPE SHT_PROGBITS, 0
??get_resp1_0:
        DATA16
        DW        4
        DW        LWRD(??get_resp1_28)
        DW        LWRD(??get_resp1_24)
        DW        LWRD(??get_resp1_25)
        DW        LWRD(??get_resp1_26)
        DW        LWRD(??get_resp1_27)
        DATA32
        DD        2752512
        DD        6291712
        DD        23101449
        DD        23101458

        SECTION `.data`:DATA:REORDER:NOROOT(0)
        SECTION_TYPE SHT_PROGBITS, 0
??get_resp1_1:
        DATA16
        DW        10
        DW        LWRD(??get_resp1_38)
        DW        LWRD(??get_resp1_29)
        DW        LWRD(??get_resp1_30)
        DW        LWRD(??compartment3_29)
        DW        LWRD(??get_resp1_37)
        DW        LWRD(??get_resp1_31)
        DW        LWRD(??get_resp1_32)
        DW        LWRD(??get_resp1_33)
        DW        LWRD(??get_resp1_36)
        DW        LWRD(??get_resp1_34)
        DW        LWRD(??get_resp1_35)
        DATA32
        DD        2752512
        DD        6291712
        DD        6324736
        DD        6324992
        DD        23101449
        DD        23101454
        DD        23101457
        DD        23101458
        DD        23101500
        DD        23101502

        SECTION `.data`:DATA:REORDER:NOROOT(0)
        SECTION_TYPE SHT_PROGBITS, 0
??get_resp_0:
        DATA16
        DW        28
        DW        LWRD(??get_resp_43)
        DW        LWRD(??get_resp_24)
        DW        LWRD(??get_resp_15)
        DW        LWRD(??get_resp_16)
        DW        LWRD(??get_resp_23)
        DW        LWRD(??get_resp_26)
        DW        LWRD(??get_resp_27)
        DW        LWRD(??get_resp_28)
        DW        LWRD(??get_resp_17)
        DW        LWRD(??get_resp_29)
        DW        LWRD(??get_resp_33)
        DW        LWRD(??get_resp_25)
        DW        LWRD(??get_resp_22)
        DW        LWRD(??get_resp_36)
        DW        LWRD(??get_resp_37)
        DW        LWRD(??get_resp_38)
        DW        LWRD(??get_resp_39)
        DW        LWRD(??get_resp_40)
        DW        LWRD(??get_resp_41)
        DW        LWRD(??get_resp_42)
        DW        LWRD(??get_resp_30)
        DW        LWRD(??get_resp_31)
        DW        LWRD(??get_resp_32)
        DW        LWRD(??get_resp_34)
        DW        LWRD(??get_resp_35)
        DW        LWRD(??get_resp_18)
        DW        LWRD(??get_resp_19)
        DW        LWRD(??get_resp_20)
        DW        LWRD(??get_resp_21)
        DATA32
        DD        256
        DD        257
        DD        2752512
        DD        6183680
        DD        6183689
        DD        6183691
        DD        6183692
        DD        6291712
        DD        6291713
        DD        6291716
        DD        6291968
        DD        6293248
        DD        6294272
        DD        6294273
        DD        6294274
        DD        6294275
        DD        6294276
        DD        6294277
        DD        6294371
        DD        16777728
        DD        16778242
        DD        16778243
        DD        16779264
        DD        16779268
        DD        23101449
        DD        23101454
        DD        23101457
        DD        23101458

        SECTION `.data`:DATA:REORDER:NOROOT(0)
        SECTION_TYPE SHT_PROGBITS, 0
??get_resp_1:
        DATA16
        DW        54
        DW        LWRD(??get_resp_98)
        DW        LWRD(??get_resp_44)
        DW        LWRD(??get_resp_75)
        DW        LWRD(??get_resp_76)
        DW        LWRD(??get_resp_85)
        DW        LWRD(??get_resp_63)
        DW        LWRD(??get_resp_77)
        DW        LWRD(??get_resp_78)
        DW        LWRD(??get_resp_67)
        DW        LWRD(??get_resp_79)
        DW        LWRD(??get_resp_80)
        DW        LWRD(??get_resp_81)
        DW        LWRD(??get_resp_82)
        DW        LWRD(??get_resp_86)
        DW        LWRD(??get_resp_71)
        DW        LWRD(??get_resp_83)
        DW        LWRD(??get_resp_84)
        DW        LWRD(??get_resp_55)
        DW        LWRD(??get_resp_59)
        DW        LWRD(??get_resp_64)
        DW        LWRD(??get_resp_68)
        DW        LWRD(??get_resp_72)
        DW        LWRD(??get_resp_45)
        DW        LWRD(??get_resp_49)
        DW        LWRD(??get_resp_56)
        DW        LWRD(??get_resp_60)
        DW        LWRD(??get_resp_65)
        DW        LWRD(??get_resp_69)
        DW        LWRD(??get_resp_73)
        DW        LWRD(??get_resp_46)
        DW        LWRD(??get_resp_50)
        DW        LWRD(??get_resp_57)
        DW        LWRD(??get_resp_61)
        DW        LWRD(??get_resp_66)
        DW        LWRD(??get_resp_70)
        DW        LWRD(??get_resp_74)
        DW        LWRD(??get_resp_47)
        DW        LWRD(??get_resp_51)
        DW        LWRD(??get_resp_58)
        DW        LWRD(??get_resp_62)
        DW        LWRD(??get_resp_95)
        DW        LWRD(??get_resp_96)
        DW        LWRD(??get_resp_97)
        DW        LWRD(??get_resp_92)
        DW        LWRD(??get_resp_93)
        DW        LWRD(??get_resp_94)
        DW        LWRD(??get_resp_48)
        DW        LWRD(??get_resp_52)
        DW        LWRD(??get_resp_53)
        DW        LWRD(??get_resp_54)
        DW        LWRD(??get_resp_87)
        DW        LWRD(??get_resp_88)
        DW        LWRD(??get_resp_89)
        DW        LWRD(??get_resp_90)
        DW        LWRD(??get_resp_91)
        DATA32
        DD        258
        DD        6183688
        DD        6183693
        DD        16843264
        DD        16844544
        DD        16844800
        DD        16910336
        DD        16975616
        DD        17106944
        DD        17172480
        DD        17238016
        DD        17303552
        DD        17367552
        DD        17368832
        DD        17369088
        DD        17434624
        DD        17630976
        DD        17696512
        DD        18155264
        DD        18286336
        DD        18679552
        DD        18810624
        DD        18876160
        DD        18941696
        DD        19007232
        DD        19465984
        DD        19597056
        DD        19990272
        DD        20121344
        DD        20186880
        DD        20252416
        DD        20317952
        DD        20776704
        DD        20907776
        DD        21300992
        DD        21432064
        DD        21497600
        DD        21563136
        DD        21628672
        DD        22087425
        DD        22087426
        DD        22087436
        DD        22087464
        DD        22087475
        DD        22087486
        DD        22742784
        DD        24905472
        DD        24971008
        DD        25036544
        DD        25167872
        DD        26085376
        DD        26150912
        DD        26216448
        DD        26281984

        SECTION `.data`:DATA:REORDER:NOROOT(0)
        SECTION_TYPE SHT_PROGBITS, 0
??get_resp_2:
        DATA16
        DW        54
        DW        LWRD(??get_resp_115)
        DW        LWRD(??get_resp_99)
        DW        LWRD(??get_resp_107)
        DW        LWRD(??get_resp_107)
        DW        LWRD(??get_resp_104)
        DW        LWRD(??get_resp_104)
        DW        LWRD(??get_resp_110)
        DW        LWRD(??get_resp_110)
        DW        LWRD(??get_resp_105)
        DW        LWRD(??get_resp_108)
        DW        LWRD(??get_resp_108)
        DW        LWRD(??get_resp_108)
        DW        LWRD(??get_resp_108)
        DW        LWRD(??get_resp_106)
        DW        LWRD(??get_resp_106)
        DW        LWRD(??get_resp_109)
        DW        LWRD(??get_resp_109)
        DW        LWRD(??get_resp_102)
        DW        LWRD(??get_resp_103)
        DW        LWRD(??get_resp_104)
        DW        LWRD(??get_resp_105)
        DW        LWRD(??get_resp_106)
        DW        LWRD(??get_resp_100)
        DW        LWRD(??get_resp_101)
        DW        LWRD(??get_resp_102)
        DW        LWRD(??get_resp_103)
        DW        LWRD(??get_resp_104)
        DW        LWRD(??get_resp_105)
        DW        LWRD(??get_resp_106)
        DW        LWRD(??get_resp_100)
        DW        LWRD(??get_resp_101)
        DW        LWRD(??get_resp_102)
        DW        LWRD(??get_resp_103)
        DW        LWRD(??get_resp_104)
        DW        LWRD(??get_resp_105)
        DW        LWRD(??get_resp_106)
        DW        LWRD(??get_resp_100)
        DW        LWRD(??get_resp_101)
        DW        LWRD(??get_resp_102)
        DW        LWRD(??get_resp_103)
        DW        LWRD(??get_resp_114)
        DW        LWRD(??get_resp_114)
        DW        LWRD(??get_resp_114)
        DW        LWRD(??get_resp_114)
        DW        LWRD(??get_resp_114)
        DW        LWRD(??get_resp_114)
        DW        LWRD(??get_resp_100)
        DW        LWRD(??get_resp_101)
        DW        LWRD(??get_resp_101)
        DW        LWRD(??get_resp_101)
        DW        LWRD(??get_resp_110)
        DW        LWRD(??get_resp_111)
        DW        LWRD(??get_resp_112)
        DW        LWRD(??get_resp_112)
        DW        LWRD(??get_resp_113)
        DATA32
        DD        258
        DD        6183688
        DD        6183693
        DD        16843264
        DD        16844544
        DD        16844800
        DD        16910336
        DD        16975616
        DD        17106944
        DD        17172480
        DD        17238016
        DD        17303552
        DD        17367552
        DD        17368832
        DD        17369088
        DD        17434624
        DD        17630976
        DD        17696512
        DD        18155264
        DD        18286336
        DD        18679552
        DD        18810624
        DD        18876160
        DD        18941696
        DD        19007232
        DD        19465984
        DD        19597056
        DD        19990272
        DD        20121344
        DD        20186880
        DD        20252416
        DD        20317952
        DD        20776704
        DD        20907776
        DD        21300992
        DD        21432064
        DD        21497600
        DD        21563136
        DD        21628672
        DD        22087425
        DD        22087426
        DD        22087436
        DD        22087464
        DD        22087475
        DD        22087486
        DD        22742784
        DD        24905472
        DD        24971008
        DD        25036544
        DD        25167872
        DD        26085376
        DD        26150912
        DD        26216448
        DD        26281984

        SECTION `.data`:DATA:REORDER:NOROOT(0)
        SECTION_TYPE SHT_PROGBITS, 0
??get_resp_3:
        DATA16
        DW        42
        DW        LWRD(??get_resp_130)
        DW        LWRD(??get_resp_116)
        DW        LWRD(??get_resp_117)
        DW        LWRD(??get_resp_117)
        DW        LWRD(??get_resp_117)
        DW        LWRD(??get_resp_117)
        DW        LWRD(??get_resp_117)
        DW        LWRD(??get_resp_117)
        DW        LWRD(??get_resp_117)
        DW        LWRD(??get_resp_117)
        DW        LWRD(??get_resp_118)
        DW        LWRD(??get_resp_119)
        DW        LWRD(??get_resp_119)
        DW        LWRD(??get_resp_119)
        DW        LWRD(??get_resp_119)
        DW        LWRD(??get_resp_119)
        DW        LWRD(??get_resp_119)
        DW        LWRD(??get_resp_119)
        DW        LWRD(??get_resp_119)
        DW        LWRD(??get_resp_120)
        DW        LWRD(??get_resp_121)
        DW        LWRD(??get_resp_121)
        DW        LWRD(??get_resp_121)
        DW        LWRD(??get_resp_121)
        DW        LWRD(??get_resp_121)
        DW        LWRD(??get_resp_121)
        DW        LWRD(??get_resp_121)
        DW        LWRD(??get_resp_121)
        DW        LWRD(??get_resp_122)
        DW        LWRD(??get_resp_123)
        DW        LWRD(??get_resp_123)
        DW        LWRD(??get_resp_123)
        DW        LWRD(??get_resp_123)
        DW        LWRD(??get_resp_123)
        DW        LWRD(??get_resp_123)
        DW        LWRD(??get_resp_123)
        DW        LWRD(??get_resp_123)
        DW        LWRD(??get_resp_124)
        DW        LWRD(??get_resp_125)
        DW        LWRD(??get_resp_126)
        DW        LWRD(??get_resp_127)
        DW        LWRD(??get_resp_128)
        DW        LWRD(??get_resp_129)
        DATA32
        DD        16844288
        DD        16844289
        DD        16844290
        DD        16844291
        DD        16844292
        DD        16844293
        DD        16844294
        DD        16844295
        DD        16844296
        DD        16909824
        DD        16909825
        DD        16909826
        DD        16909827
        DD        16909828
        DD        16909829
        DD        16909830
        DD        16909831
        DD        16909832
        DD        17368576
        DD        17368577
        DD        17368578
        DD        17368579
        DD        17368580
        DD        17368581
        DD        17368582
        DD        17368583
        DD        17368584
        DD        17434112
        DD        17434113
        DD        17434114
        DD        17434115
        DD        17434116
        DD        17434117
        DD        17434118
        DD        17434119
        DD        17434120
        DD        18155008
        DD        18220544
        DD        19465728
        DD        19531264
        DD        20776448
        DD        20841984

        SECTION `.data`:DATA:REORDER:NOROOT(0)
        SECTION_TYPE SHT_PROGBITS, 0
??get_resp_4:
        DATA16
        DW        42
        DW        LWRD(??get_resp_133)
        DW        LWRD(??get_resp_131)
        DW        LWRD(??get_resp_131)
        DW        LWRD(??get_resp_131)
        DW        LWRD(??get_resp_131)
        DW        LWRD(??get_resp_131)
        DW        LWRD(??get_resp_131)
        DW        LWRD(??get_resp_131)
        DW        LWRD(??get_resp_131)
        DW        LWRD(??get_resp_131)
        DW        LWRD(??get_resp_131)
        DW        LWRD(??get_resp_131)
        DW        LWRD(??get_resp_131)
        DW        LWRD(??get_resp_131)
        DW        LWRD(??get_resp_131)
        DW        LWRD(??get_resp_131)
        DW        LWRD(??get_resp_131)
        DW        LWRD(??get_resp_131)
        DW        LWRD(??get_resp_131)
        DW        LWRD(??get_resp_132)
        DW        LWRD(??get_resp_131)
        DW        LWRD(??get_resp_131)
        DW        LWRD(??get_resp_131)
        DW        LWRD(??get_resp_131)
        DW        LWRD(??get_resp_131)
        DW        LWRD(??get_resp_131)
        DW        LWRD(??get_resp_131)
        DW        LWRD(??get_resp_131)
        DW        LWRD(??get_resp_132)
        DW        LWRD(??get_resp_131)
        DW        LWRD(??get_resp_131)
        DW        LWRD(??get_resp_131)
        DW        LWRD(??get_resp_131)
        DW        LWRD(??get_resp_131)
        DW        LWRD(??get_resp_131)
        DW        LWRD(??get_resp_131)
        DW        LWRD(??get_resp_131)
        DW        LWRD(??get_resp_131)
        DW        LWRD(??get_resp_131)
        DW        LWRD(??get_resp_131)
        DW        LWRD(??get_resp_131)
        DW        LWRD(??get_resp_131)
        DW        LWRD(??get_resp_131)
        DATA32
        DD        16844288
        DD        16844289
        DD        16844290
        DD        16844291
        DD        16844292
        DD        16844293
        DD        16844294
        DD        16844295
        DD        16844296
        DD        16909824
        DD        16909825
        DD        16909826
        DD        16909827
        DD        16909828
        DD        16909829
        DD        16909830
        DD        16909831
        DD        16909832
        DD        17368576
        DD        17368577
        DD        17368578
        DD        17368579
        DD        17368580
        DD        17368581
        DD        17368582
        DD        17368583
        DD        17368584
        DD        17434112
        DD        17434113
        DD        17434114
        DD        17434115
        DD        17434116
        DD        17434117
        DD        17434118
        DD        17434119
        DD        17434120
        DD        18155008
        DD        18220544
        DD        19465728
        DD        19531264
        DD        20776448
        DD        20841984

        SECTION `.data`:DATA:REORDER:NOROOT(0)
        SECTION_TYPE SHT_PROGBITS, 0
??get_resp_5:
        DATA16
        DW        42
        DW        LWRD(??get_resp_148)
        DW        LWRD(??get_resp_134)
        DW        LWRD(??get_resp_135)
        DW        LWRD(??get_resp_135)
        DW        LWRD(??get_resp_135)
        DW        LWRD(??get_resp_135)
        DW        LWRD(??get_resp_135)
        DW        LWRD(??get_resp_135)
        DW        LWRD(??get_resp_135)
        DW        LWRD(??get_resp_135)
        DW        LWRD(??get_resp_136)
        DW        LWRD(??get_resp_137)
        DW        LWRD(??get_resp_137)
        DW        LWRD(??get_resp_137)
        DW        LWRD(??get_resp_137)
        DW        LWRD(??get_resp_137)
        DW        LWRD(??get_resp_137)
        DW        LWRD(??get_resp_137)
        DW        LWRD(??get_resp_137)
        DW        LWRD(??get_resp_138)
        DW        LWRD(??get_resp_139)
        DW        LWRD(??get_resp_139)
        DW        LWRD(??get_resp_139)
        DW        LWRD(??get_resp_139)
        DW        LWRD(??get_resp_139)
        DW        LWRD(??get_resp_139)
        DW        LWRD(??get_resp_139)
        DW        LWRD(??get_resp_139)
        DW        LWRD(??get_resp_140)
        DW        LWRD(??get_resp_141)
        DW        LWRD(??get_resp_141)
        DW        LWRD(??get_resp_141)
        DW        LWRD(??get_resp_141)
        DW        LWRD(??get_resp_141)
        DW        LWRD(??get_resp_141)
        DW        LWRD(??get_resp_141)
        DW        LWRD(??get_resp_141)
        DW        LWRD(??get_resp_142)
        DW        LWRD(??get_resp_143)
        DW        LWRD(??get_resp_144)
        DW        LWRD(??get_resp_145)
        DW        LWRD(??get_resp_146)
        DW        LWRD(??get_resp_147)
        DATA32
        DD        16844288
        DD        16844289
        DD        16844290
        DD        16844291
        DD        16844292
        DD        16844293
        DD        16844294
        DD        16844295
        DD        16844296
        DD        16909824
        DD        16909825
        DD        16909826
        DD        16909827
        DD        16909828
        DD        16909829
        DD        16909830
        DD        16909831
        DD        16909832
        DD        17368576
        DD        17368577
        DD        17368578
        DD        17368579
        DD        17368580
        DD        17368581
        DD        17368582
        DD        17368583
        DD        17368584
        DD        17434112
        DD        17434113
        DD        17434114
        DD        17434115
        DD        17434116
        DD        17434117
        DD        17434118
        DD        17434119
        DD        17434120
        DD        18155008
        DD        18220544
        DD        19465728
        DD        19531264
        DD        20776448
        DD        20841984

        SECTION `.data`:DATA:REORDER:NOROOT(0)
        SECTION_TYPE SHT_PROGBITS, 0
??get_resp_6:
        DATA16
        DW        17
        DW        LWRD(??get_resp_166)
        DW        LWRD(??get_resp_165)
        DW        LWRD(??get_resp_158)
        DW        LWRD(??get_resp_159)
        DW        LWRD(??get_resp_160)
        DW        LWRD(??get_resp_161)
        DW        LWRD(??get_resp_162)
        DW        LWRD(??get_resp_163)
        DW        LWRD(??get_resp_164)
        DW        LWRD(??get_resp_149)
        DW        LWRD(??get_resp_150)
        DW        LWRD(??get_resp_151)
        DW        LWRD(??get_resp_152)
        DW        LWRD(??get_resp_153)
        DW        LWRD(??get_resp_154)
        DW        LWRD(??get_resp_157)
        DW        LWRD(??get_resp_155)
        DW        LWRD(??get_resp_156)
        DATA32
        DD        6183690
        DD        6513152
        DD        6513153
        DD        6513154
        DD        6513155
        DD        6513156
        DD        6513157
        DD        6513251
        DD        22960896
        DD        22960899
        DD        22960900
        DD        22960901
        DD        22960902
        DD        22960903
        DD        23200000
        DD        23265536
        DD        23265792

        SECTION `.data`:DATA:REORDER:NOROOT(0)
        SECTION_TYPE SHT_PROGBITS, 0
??get_resp_7:
        DATA16
        DW        17
        DW        LWRD(??get_resp_184)
        DW        LWRD(??get_resp_183)
        DW        LWRD(??get_resp_176)
        DW        LWRD(??get_resp_177)
        DW        LWRD(??get_resp_178)
        DW        LWRD(??get_resp_179)
        DW        LWRD(??get_resp_180)
        DW        LWRD(??get_resp_181)
        DW        LWRD(??get_resp_182)
        DW        LWRD(??get_resp_167)
        DW        LWRD(??get_resp_168)
        DW        LWRD(??get_resp_169)
        DW        LWRD(??get_resp_170)
        DW        LWRD(??get_resp_171)
        DW        LWRD(??get_resp_172)
        DW        LWRD(??get_resp_175)
        DW        LWRD(??get_resp_173)
        DW        LWRD(??get_resp_174)
        DATA32
        DD        6183690
        DD        6513152
        DD        6513153
        DD        6513154
        DD        6513155
        DD        6513156
        DD        6513157
        DD        6513251
        DD        22960896
        DD        22960899
        DD        22960900
        DD        22960901
        DD        22960902
        DD        22960903
        DD        23200000
        DD        23265536
        DD        23265792

        SECTION `.data`:DATA:REORDER:NOROOT(0)
        SECTION_TYPE SHT_PROGBITS, 0
??get_resp_8:
        DATA16
        DW        17
        DW        LWRD(??get_resp_188)
        DW        LWRD(??get_resp_185)
        DW        LWRD(??get_resp_185)
        DW        LWRD(??get_resp_185)
        DW        LWRD(??get_resp_185)
        DW        LWRD(??get_resp_185)
        DW        LWRD(??get_resp_185)
        DW        LWRD(??get_resp_185)
        DW        LWRD(??get_resp_185)
        DW        LWRD(??get_resp_185)
        DW        LWRD(??get_resp_185)
        DW        LWRD(??get_resp_185)
        DW        LWRD(??get_resp_185)
        DW        LWRD(??get_resp_185)
        DW        LWRD(??get_resp_185)
        DW        LWRD(??get_resp_185)
        DW        LWRD(??get_resp_186)
        DW        LWRD(??get_resp_187)
        DATA32
        DD        6183690
        DD        6513152
        DD        6513153
        DD        6513154
        DD        6513155
        DD        6513156
        DD        6513157
        DD        6513251
        DD        22960896
        DD        22960899
        DD        22960900
        DD        22960901
        DD        22960902
        DD        22960903
        DD        23200000
        DD        23265536
        DD        23265792

        SECTION `.data`:DATA:REORDER:NOROOT(0)
        SECTION_TYPE SHT_PROGBITS, 0
??get_resp_9:
        DATA16
        DW        17
        DW        LWRD(??get_resp_190)
        DW        LWRD(??get_resp_189)
        DW        LWRD(??get_resp_189)
        DW        LWRD(??get_resp_189)
        DW        LWRD(??get_resp_189)
        DW        LWRD(??get_resp_189)
        DW        LWRD(??get_resp_189)
        DW        LWRD(??get_resp_189)
        DW        LWRD(??get_resp_189)
        DW        LWRD(??get_resp_189)
        DW        LWRD(??get_resp_189)
        DW        LWRD(??get_resp_189)
        DW        LWRD(??get_resp_189)
        DW        LWRD(??get_resp_189)
        DW        LWRD(??get_resp_189)
        DW        LWRD(??get_resp_189)
        DW        LWRD(??get_resp_189)
        DW        LWRD(??get_resp_189)
        DATA32
        DD        6183690
        DD        6513152
        DD        6513153
        DD        6513154
        DD        6513155
        DD        6513156
        DD        6513157
        DD        6513251
        DD        22960896
        DD        22960899
        DD        22960900
        DD        22960901
        DD        22960902
        DD        22960903
        DD        23200000
        DD        23265536
        DD        23265792

        SECTION `.data`:DATA:REORDER:NOROOT(0)
        SECTION_TYPE SHT_PROGBITS, 0
??get_resp_10:
        DATA16
        DW        17
        DW        LWRD(??get_resp_193)
        DW        LWRD(??get_resp_191)
        DW        LWRD(??get_resp_191)
        DW        LWRD(??get_resp_191)
        DW        LWRD(??get_resp_191)
        DW        LWRD(??get_resp_191)
        DW        LWRD(??get_resp_191)
        DW        LWRD(??get_resp_191)
        DW        LWRD(??get_resp_191)
        DW        LWRD(??get_resp_191)
        DW        LWRD(??get_resp_191)
        DW        LWRD(??get_resp_191)
        DW        LWRD(??get_resp_191)
        DW        LWRD(??get_resp_191)
        DW        LWRD(??get_resp_191)
        DW        LWRD(??get_resp_191)
        DW        LWRD(??get_resp_192)
        DW        LWRD(??get_resp_192)
        DATA32
        DD        6183690
        DD        6513152
        DD        6513153
        DD        6513154
        DD        6513155
        DD        6513156
        DD        6513157
        DD        6513251
        DD        22960896
        DD        22960899
        DD        22960900
        DD        22960901
        DD        22960902
        DD        22960903
        DD        23200000
        DD        23265536
        DD        23265792

        SECTION `.data`:DATA:REORDER:NOROOT(0)
        SECTION_TYPE SHT_PROGBITS, 0
??get_resp_11:
        DATA16
        DW        17
        DW        LWRD(??get_resp_205)
        DW        LWRD(??get_resp_194)
        DW        LWRD(??get_resp_198)
        DW        LWRD(??get_resp_199)
        DW        LWRD(??get_resp_200)
        DW        LWRD(??get_resp_201)
        DW        LWRD(??get_resp_202)
        DW        LWRD(??get_resp_203)
        DW        LWRD(??get_resp_204)
        DW        LWRD(??get_resp_194)
        DW        LWRD(??get_resp_194)
        DW        LWRD(??get_resp_194)
        DW        LWRD(??get_resp_194)
        DW        LWRD(??get_resp_194)
        DW        LWRD(??get_resp_194)
        DW        LWRD(??get_resp_197)
        DW        LWRD(??get_resp_195)
        DW        LWRD(??get_resp_196)
        DATA32
        DD        6183690
        DD        6513152
        DD        6513153
        DD        6513154
        DD        6513155
        DD        6513156
        DD        6513157
        DD        6513251
        DD        22960896
        DD        22960899
        DD        22960900
        DD        22960901
        DD        22960902
        DD        22960903
        DD        23200000
        DD        23265536
        DD        23265792

        SECTION `.data`:DATA:REORDER:NOROOT(0)
        SECTION_TYPE SHT_PROGBITS, 0
??get_resp_12:
        DATA16
        DW        17
        DW        LWRD(??get_resp_217)
        DW        LWRD(??get_resp_206)
        DW        LWRD(??get_resp_210)
        DW        LWRD(??get_resp_211)
        DW        LWRD(??get_resp_212)
        DW        LWRD(??get_resp_213)
        DW        LWRD(??get_resp_214)
        DW        LWRD(??get_resp_215)
        DW        LWRD(??get_resp_216)
        DW        LWRD(??get_resp_206)
        DW        LWRD(??get_resp_206)
        DW        LWRD(??get_resp_206)
        DW        LWRD(??get_resp_206)
        DW        LWRD(??get_resp_206)
        DW        LWRD(??get_resp_206)
        DW        LWRD(??get_resp_209)
        DW        LWRD(??get_resp_207)
        DW        LWRD(??get_resp_208)
        DATA32
        DD        6183690
        DD        6513152
        DD        6513153
        DD        6513154
        DD        6513155
        DD        6513156
        DD        6513157
        DD        6513251
        DD        22960896
        DD        22960899
        DD        22960900
        DD        22960901
        DD        22960902
        DD        22960903
        DD        23200000
        DD        23265536
        DD        23265792
//  157 /* unsigned char code Xdlms_type[] = {0x00,0x02,0x06,0x04,0x18,0x00,0x00,0x18,0x12,0x01,0xff,0x12,0x01,0xff,0x11,0x06,0x0f,0x00,0x09,0x00}; */

        SECTION `.bss`:DATA:REORDER:NOROOT(0)
//  158 us8 obis_a,obis_b,obis_c,obis_d,obis_e,obis_f;
_obis_a:
        DS 1

        SECTION `.bss`:DATA:REORDER:NOROOT(0)
_obis_b:
        DS 1

        SECTION `.bss`:DATA:REORDER:NOROOT(0)
_obis_c:
        DS 1

        SECTION `.bss`:DATA:REORDER:NOROOT(0)
_obis_d:
        DS 1

        SECTION `.bss`:DATA:REORDER:NOROOT(0)
_obis_e:
        DS 1

        SECTION `.bss`:DATA:REORDER:NOROOT(0)
_obis_f:
        DS 1
//  159 
//  160 

        SECTION `.bss`:DATA:REORDER:NOROOT(0)
//  161 flag_union flag_optical, flag_rj45, flag_communication,flag_hdlc1,flag_hdlc2,flag_hdlc3,flag_hdlc4;
_flag_optical:
        DS 1

        SECTION `.bss`:DATA:REORDER:NOROOT(0)
_flag_rj45:
        DS 1

        SECTION `.bss`:DATA:REORDER:NOROOT(0)
_flag_communication:
        DS 1

        SECTION `.bss`:DATA:REORDER:NOROOT(0)
_flag_hdlc1:
        DS 1

        SECTION `.bss`:DATA:REORDER:NOROOT(0)
_flag_hdlc2:
        DS 1

        SECTION `.bss`:DATA:REORDER:NOROOT(0)
_flag_hdlc3:
        DS 1

        SECTION `.bss`:DATA:REORDER:NOROOT(0)
_flag_hdlc4:
        DS 1
//  162 
//  163 
//  164 /* Function */
//  165 void compartment6();
//  166 void compartment3();
//  167 us32 obis_short_cal(us8 *obis);
//  168 void get_resp1();
//  169 void get_resp(void);
//  170 void capture_objects_filler(unsigned char const *p_f);
//  171 void buffer_scaler_filler(unsigned char const  *s_f);
//  172 void tamper_status(void);
//  173 

        SECTION `.text`:CODE:NOROOT(0)
          CFI Block cfiBlock0 Using cfiCommon0
          CFI Function _tamper_status
        CODE
//  174 void tamper_status(void)
//  175 {
_tamper_status:
        ; * Stack frame (at entry) *
        ; Param size: 0
        ; Auto size: 4
        SUBW      SP, #0x4           ;; 1 cycle
          CFI CFA SP+8
//  176   us32 tamper_byte = 0;
        MOVW      AX, SP             ;; 1 cycle
        MOVW      HL, AX             ;; 1 cycle
        MOVW      AX, #0x0           ;; 1 cycle
        MOVW      [HL], AX           ;; 1 cycle
        MOVW      AX, #0x0           ;; 1 cycle
        MOVW      [HL+0x02], AX      ;; 1 cycle
//  177   
//  178   //for now only two tampers required ,so we are sending status of only two tampers.
//  179   //memory ,rtc and battery status will come fine always because we are not sending there flags.will take care in project.    pending
//  180   
//  181   if(flag_Rph_active == EXPORT) 
        MOVW      HL, #LWRD(_flag_quadrant)  ;; 1 cycle
        MOV1      CY, [HL].0         ;; 1 cycle
        BNC       ??compartment3_0   ;; 4 cycles
        ; ------------------------------------- Block: 13 cycles
//  182   {
//  183     bitSet(tamper_byte,bit6);
        MOVW      AX, [SP+0x02]      ;; 1 cycle
        MOVW      BC, AX             ;; 1 cycle
        MOVW      AX, [SP]           ;; 1 cycle
        XCH       A, X               ;; 1 cycle
        OR        A, #0x40           ;; 1 cycle
        XCH       A, X               ;; 1 cycle
        MOVW      HL, SP             ;; 1 cycle
        MOVW      [HL], AX           ;; 1 cycle
        XCHW      AX, BC             ;; 1 cycle
        MOVW      [HL+0x02], AX      ;; 1 cycle
        XCHW      AX, BC             ;; 1 cycle
        ; ------------------------------------- Block: 11 cycles
//  184   }
//  185   if(flag_Yph_active == EXPORT)
??compartment3_0:
        MOVW      HL, #LWRD(_flag_quadrant)  ;; 1 cycle
        MOV1      CY, [HL].2         ;; 1 cycle
        BNC       ??compartment3_1   ;; 4 cycles
        ; ------------------------------------- Block: 6 cycles
//  186   {
//  187     bitSet(tamper_byte,bit7);
        MOVW      AX, [SP+0x02]      ;; 1 cycle
        MOVW      BC, AX             ;; 1 cycle
        MOVW      AX, [SP]           ;; 1 cycle
        XCH       A, X               ;; 1 cycle
        OR        A, #0x80           ;; 1 cycle
        XCH       A, X               ;; 1 cycle
        MOVW      HL, SP             ;; 1 cycle
        MOVW      [HL], AX           ;; 1 cycle
        XCHW      AX, BC             ;; 1 cycle
        MOVW      [HL+0x02], AX      ;; 1 cycle
        XCHW      AX, BC             ;; 1 cycle
        ; ------------------------------------- Block: 11 cycles
//  188   }
//  189   if(flag_Bph_active == EXPORT)
??compartment3_1:
        MOVW      HL, #LWRD(_flag_quadrant)  ;; 1 cycle
        MOV1      CY, [HL].4         ;; 1 cycle
        BNC       ??compartment3_2   ;; 4 cycles
        ; ------------------------------------- Block: 6 cycles
//  190   {
//  191     bitSet(tamper_byte,bit8);
        MOVW      AX, [SP+0x02]      ;; 1 cycle
        MOVW      BC, AX             ;; 1 cycle
        MOVW      AX, [SP]           ;; 1 cycle
        OR        A, #0x1            ;; 1 cycle
        MOVW      HL, SP             ;; 1 cycle
        MOVW      [HL], AX           ;; 1 cycle
        XCHW      AX, BC             ;; 1 cycle
        MOVW      [HL+0x02], AX      ;; 1 cycle
        XCHW      AX, BC             ;; 1 cycle
        ; ------------------------------------- Block: 9 cycles
//  192   }
//  193   if(bitIsSet(tamper_instant_status,BIT_MAGNET))
??compartment3_2:
        MOVW      HL, #LWRD(_tamper_instant_status)  ;; 1 cycle
        MOV1      CY, [HL].0         ;; 1 cycle
        BNC       ??compartment3_3   ;; 4 cycles
        ; ------------------------------------- Block: 6 cycles
//  194   {
//  195     bitSet(tamper_byte,bit15);
        MOVW      AX, [SP+0x02]      ;; 1 cycle
        MOVW      BC, AX             ;; 1 cycle
        MOVW      AX, [SP]           ;; 1 cycle
        OR        A, #0x80           ;; 1 cycle
        MOVW      HL, SP             ;; 1 cycle
        MOVW      [HL], AX           ;; 1 cycle
        XCHW      AX, BC             ;; 1 cycle
        MOVW      [HL+0x02], AX      ;; 1 cycle
        XCHW      AX, BC             ;; 1 cycle
        ; ------------------------------------- Block: 9 cycles
//  196   }
//  197   if(bitIsSet(tpr.top_cover.flag,event_f))
??compartment3_3:
        MOVW      HL, #LWRD(_tpr+592)  ;; 1 cycle
        MOV1      CY, [HL].0         ;; 1 cycle
        BNC       ??compartment3_4   ;; 4 cycles
        ; ------------------------------------- Block: 6 cycles
//  198   {
//  199     bitSet(tamper_byte,bit18);
        MOVW      AX, [SP+0x02]      ;; 1 cycle
        MOVW      BC, AX             ;; 1 cycle
        MOVW      AX, [SP]           ;; 1 cycle
        XCH       A, C               ;; 1 cycle
        OR        A, #0x4            ;; 1 cycle
        XCH       A, C               ;; 1 cycle
        MOVW      HL, SP             ;; 1 cycle
        MOVW      [HL], AX           ;; 1 cycle
        XCHW      AX, BC             ;; 1 cycle
        MOVW      [HL+0x02], AX      ;; 1 cycle
        XCHW      AX, BC             ;; 1 cycle
        ; ------------------------------------- Block: 11 cycles
//  200   }
//  201   if(flag_phase_seq == 0)
??compartment3_4:
        MOVW      HL, #LWRD(_flag_metro1)  ;; 1 cycle
        MOV1      CY, [HL].6         ;; 1 cycle
        BC        ??compartment3_5   ;; 4 cycles
        ; ------------------------------------- Block: 6 cycles
//  202   {
//  203      bitSet(tamper_byte,bit19);
        MOVW      AX, [SP+0x02]      ;; 1 cycle
        MOVW      BC, AX             ;; 1 cycle
        MOVW      AX, [SP]           ;; 1 cycle
        XCH       A, C               ;; 1 cycle
        OR        A, #0x8            ;; 1 cycle
        XCH       A, C               ;; 1 cycle
        MOVW      HL, SP             ;; 1 cycle
        MOVW      [HL], AX           ;; 1 cycle
        XCHW      AX, BC             ;; 1 cycle
        MOVW      [HL+0x02], AX      ;; 1 cycle
        XCHW      AX, BC             ;; 1 cycle
        ; ------------------------------------- Block: 11 cycles
//  204   }
//  205   if(flag_eep_fail == 1 || flag_eep0_fail == 1 || flag_eep1_fail == 1 || flag_eep2_fail == 1)
??compartment3_5:
        MOV       A, N:_flag_eeprom_error  ;; 1 cycle
        AND       A, #0x55           ;; 1 cycle
        CMP0      A                  ;; 1 cycle
        BZ        ??compartment3_6   ;; 4 cycles
        ; ------------------------------------- Block: 7 cycles
//  206   {
//  207      bitSet(tamper_byte,bit23);
        MOVW      AX, [SP+0x02]      ;; 1 cycle
        MOVW      BC, AX             ;; 1 cycle
        MOVW      AX, [SP]           ;; 1 cycle
        XCH       A, C               ;; 1 cycle
        OR        A, #0x80           ;; 1 cycle
        XCH       A, C               ;; 1 cycle
        MOVW      HL, SP             ;; 1 cycle
        MOVW      [HL], AX           ;; 1 cycle
        XCHW      AX, BC             ;; 1 cycle
        MOVW      [HL+0x02], AX      ;; 1 cycle
        XCHW      AX, BC             ;; 1 cycle
        ; ------------------------------------- Block: 11 cycles
//  208   }
//  209   if(bitIsSet(tpr.battery_low.flag,event_f))
??compartment3_6:
        MOVW      HL, #LWRD(_tpr+616)  ;; 1 cycle
        MOV1      CY, [HL].0         ;; 1 cycle
        BNC       ??compartment3_7   ;; 4 cycles
        ; ------------------------------------- Block: 6 cycles
//  210   {
//  211      bitSet(tamper_byte,bit26);
        MOVW      AX, [SP+0x02]      ;; 1 cycle
        MOVW      BC, AX             ;; 1 cycle
        MOVW      AX, [SP]           ;; 1 cycle
        XCH       A, B               ;; 1 cycle
        OR        A, #0x4            ;; 1 cycle
        XCH       A, B               ;; 1 cycle
        MOVW      HL, SP             ;; 1 cycle
        MOVW      [HL], AX           ;; 1 cycle
        XCHW      AX, BC             ;; 1 cycle
        MOVW      [HL+0x02], AX      ;; 1 cycle
        XCHW      AX, BC             ;; 1 cycle
        ; ------------------------------------- Block: 11 cycles
//  212   }
//  213   
//  214   info[k++]= 0x00;
??compartment3_7:
        MOVW      BC, N:_k           ;; 1 cycle
        MOV       A, #0x0            ;; 1 cycle
        MOV       (_info)[BC], A     ;; 1 cycle
        INCW      N:_k               ;; 2 cycles
//  215   info[k++]= 0x04;
        MOVW      BC, N:_k           ;; 1 cycle
        MOV       A, #0x4            ;; 1 cycle
        MOV       (_info)[BC], A     ;; 1 cycle
        INCW      N:_k               ;; 2 cycles
//  216   info[k++]= 32;
        MOVW      BC, N:_k           ;; 1 cycle
        MOV       A, #0x20           ;; 1 cycle
        MOV       (_info)[BC], A     ;; 1 cycle
        INCW      N:_k               ;; 2 cycles
//  217   long_into_char_array4(tamper_byte,&info[k]);
        MOVW      AX, N:_k           ;; 1 cycle
        ADDW      AX, #LWRD(_info)   ;; 1 cycle
        MOVW      DE, AX             ;; 1 cycle
        MOVW      AX, [SP+0x02]      ;; 1 cycle
        MOVW      BC, AX             ;; 1 cycle
        MOVW      AX, [SP]           ;; 1 cycle
          CFI FunCall _long_into_char_array4
        CALL      _long_into_char_array4  ;; 3 cycles
//  218   k += 4;
        MOVW      AX, N:_k           ;; 1 cycle
        ADDW      AX, #0x4           ;; 1 cycle
        MOVW      N:_k, AX           ;; 1 cycle
//  219 }
        ADDW      SP, #0x4           ;; 1 cycle
          CFI CFA SP+4
        RET                          ;; 6 cycles
          CFI EndBlock cfiBlock0
        ; ------------------------------------- Block: 34 cycles
        ; ------------------------------------- Total: 174 cycles
//  220 
//  221 

        SECTION `.text`:CODE:NOROOT(0)
          CFI Block cfiBlock1 Using cfiCommon1
          CFI Function _obis_short_cal
          CFI NoCalls
        CODE
//  222 us32 obis_short_cal(us8 *obis)
//  223 {
_obis_short_cal:
        ; * Stack frame (at entry) *
        ; Param size: 0
        ; Auto size: 0
        MOVW      HL, AX             ;; 1 cycle
//  224   static union_4byte temp_union;
//  225   temp_union.s.byte3 = obis[0];
        MOV       A, [HL]            ;; 1 cycle
        MOV       N:`obis_short_cal::temp_union`+3, A  ;; 1 cycle
//  226   temp_union.s.byte2 = obis[2];
        MOV       A, [HL+0x02]       ;; 1 cycle
        MOV       N:`obis_short_cal::temp_union`+2, A  ;; 1 cycle
//  227   temp_union.s.byte1 = obis[3];
        MOV       A, [HL+0x03]       ;; 1 cycle
        MOV       N:`obis_short_cal::temp_union`+1, A  ;; 1 cycle
//  228   temp_union.s.byte0 = obis[4];
        MOV       A, [HL+0x04]       ;; 1 cycle
        MOV       N:`obis_short_cal::temp_union`, A  ;; 1 cycle
//  229   
//  230   obis_a = obis[0];
        MOV       A, [HL]            ;; 1 cycle
        MOV       N:_obis_a, A       ;; 1 cycle
//  231   obis_b = obis[1];
        MOV       A, [HL+0x01]       ;; 1 cycle
        MOV       N:_obis_b, A       ;; 1 cycle
//  232   obis_c = obis[2];
        MOV       A, [HL+0x02]       ;; 1 cycle
        MOV       N:_obis_c, A       ;; 1 cycle
//  233   obis_d = obis[3];
        MOV       A, [HL+0x03]       ;; 1 cycle
        MOV       N:_obis_d, A       ;; 1 cycle
//  234   obis_e = obis[4];
        MOV       A, [HL+0x04]       ;; 1 cycle
        MOV       N:_obis_e, A       ;; 1 cycle
//  235   obis_f = obis[5];
        MOV       A, [HL+0x05]       ;; 1 cycle
        MOV       N:_obis_f, A       ;; 1 cycle
//  236   
//  237   return(temp_union.val);
        MOVW      BC, N:`obis_short_cal::temp_union`+2  ;; 1 cycle
        MOVW      AX, N:`obis_short_cal::temp_union`  ;; 1 cycle
        RET                          ;; 6 cycles
          CFI EndBlock cfiBlock1
        ; ------------------------------------- Block: 29 cycles
        ; ------------------------------------- Total: 29 cycles
//  238 }

        SECTION `.bss`:DATA:REORDER:NOROOT(1)
`obis_short_cal::temp_union`:
        DS 4

        SECTION `.text`:CODE:NOROOT(0)
          CFI Block cfiBlock2 Using cfiCommon0
          CFI Function _get_resp1
        CODE
//  239 void get_resp1()
//  240 {
_get_resp1:
        ; * Stack frame (at entry) *
        ; Param size: 0
        ; Auto size: 8
        SUBW      SP, #0x8           ;; 1 cycle
          CFI CFA SP+12
//  241   uint16_t classatt;
//  242   uint32_t obis1;
//  243   uint8_t class_att[2];
//  244   
//  245   class_att[0]= info[7]; /* class id */
        MOV       A, N:_info+7       ;; 1 cycle
        MOV       [SP+0x04], A       ;; 1 cycle
//  246   class_att[1]= attribute_id;
        MOV       A, N:_attribute_id  ;; 1 cycle
        MOV       [SP+0x05], A       ;; 1 cycle
//  247   
//  248   classatt= (uint16_t)(class_att[0] * 256) + class_att[1];
        MOV       A, [SP+0x04]       ;; 1 cycle
        MOV       X, A               ;; 1 cycle
        MOV       A, #0x0            ;; 1 cycle
        MOVW      BC, #0x100         ;; 1 cycle
        MULHU                        ;; 2 cycles
        MOVW      HL, AX             ;; 1 cycle
        MOV       A, [SP+0x05]       ;; 1 cycle
        MOV       E, A               ;; 1 cycle
        MOV       D, #0x0            ;; 1 cycle
        MOVW      AX, HL             ;; 1 cycle
        ADDW      AX, DE             ;; 1 cycle
        MOVW      [SP+0x06], AX      ;; 1 cycle
//  249   
//  250   obis1= obis_short_cal(&info[8]);
        MOVW      AX, #LWRD(_info+8)  ;; 1 cycle
          CFI FunCall _obis_short_cal
        CALL      _obis_short_cal    ;; 3 cycles
        ADDW      SP, #0x4           ;; 1 cycle
          CFI CFA SP+8
        PUSH      BC                 ;; 1 cycle
          CFI CFA SP+10
        PUSH      AX                 ;; 1 cycle
          CFI CFA SP+12
//  251   
//  252   switch(classatt)
        MOVW      AX, [SP+0x06]      ;; 1 cycle
        SUBW      AX, #0x101         ;; 1 cycle
        SKNZ                         ;; 4 cycles
        BR        N:??compartment3_8  ;; 4 cycles
        ; ------------------------------------- Block: 31 cycles
        SUBW      AX, #0x1           ;; 1 cycle
        SKNZ                         ;; 4 cycles
        BR        N:??compartment3_9  ;; 4 cycles
        ; ------------------------------------- Block: 5 cycles
        SUBW      AX, #0x6FF         ;; 1 cycle
        BZ        ??compartment3_10  ;; 4 cycles
        ; ------------------------------------- Block: 5 cycles
        SUBW      AX, #0x1           ;; 1 cycle
        SKNZ                         ;; 4 cycles
        BR        N:??compartment3_11  ;; 4 cycles
        ; ------------------------------------- Block: 5 cycles
        SUBW      AX, #0x1           ;; 1 cycle
        SKNZ                         ;; 4 cycles
        BR        N:??compartment3_12  ;; 4 cycles
        ; ------------------------------------- Block: 5 cycles
        SUBW      AX, #0x1           ;; 1 cycle
        SKNZ                         ;; 4 cycles
        BR        N:??compartment3_13  ;; 4 cycles
        ; ------------------------------------- Block: 5 cycles
        SUBW      AX, #0x1           ;; 1 cycle
        CMPW      AX, #0x4           ;; 1 cycle
        SKNC                         ;; 4 cycles
        BR        N:??compartment3_14  ;; 4 cycles
        ; ------------------------------------- Block: 6 cycles
        SUBW      AX, #0x4           ;; 1 cycle
        SKNZ                         ;; 4 cycles
        BR        N:??compartment3_15  ;; 4 cycles
        ; ------------------------------------- Block: 5 cycles
        SUBW      AX, #0x6F8         ;; 1 cycle
        SKNZ                         ;; 4 cycles
        BR        N:??compartment3_16  ;; 4 cycles
        ; ------------------------------------- Block: 5 cycles
        SUBW      AX, #0x1           ;; 1 cycle
        SKNZ                         ;; 4 cycles
        BR        N:??compartment3_17  ;; 4 cycles
        ; ------------------------------------- Block: 5 cycles
        SUBW      AX, #0x1           ;; 1 cycle
        SKNZ                         ;; 4 cycles
        BR        N:??compartment3_18  ;; 4 cycles
        ; ------------------------------------- Block: 5 cycles
        SUBW      AX, #0x1           ;; 1 cycle
        SKNZ                         ;; 4 cycles
        BR        N:??compartment3_19  ;; 4 cycles
        ; ------------------------------------- Block: 5 cycles
        SUBW      AX, #0x1           ;; 1 cycle
        SKNZ                         ;; 4 cycles
        BR        N:??compartment3_20  ;; 4 cycles
        ; ------------------------------------- Block: 5 cycles
        SUBW      AX, #0x1           ;; 1 cycle
        SKNZ                         ;; 4 cycles
        BR        N:??compartment3_21  ;; 4 cycles
        ; ------------------------------------- Block: 5 cycles
        SUBW      AX, #0x1           ;; 1 cycle
        SKNZ                         ;; 4 cycles
        BR        N:??compartment3_22  ;; 4 cycles
        ; ------------------------------------- Block: 5 cycles
        SUBW      AX, #0x1           ;; 1 cycle
        SKNZ                         ;; 4 cycles
        BR        N:??compartment3_23  ;; 4 cycles
        ; ------------------------------------- Block: 5 cycles
        SUBW      AX, #0x2FFA        ;; 1 cycle
        SKNZ                         ;; 4 cycles
        BR        N:??compartment3_24  ;; 4 cycles
        ; ------------------------------------- Block: 5 cycles
        SUBW      AX, #0x1           ;; 1 cycle
        SKNZ                         ;; 4 cycles
        BR        N:??compartment3_25  ;; 4 cycles
        ; ------------------------------------- Block: 5 cycles
        BR        N:??compartment3_26  ;; 3 cycles
        ; ------------------------------------- Block: 3 cycles
//  253   {
//  254   case 0x0801:
//  255     if(obis1 == 0x00010000)
??compartment3_10:
        MOVW      AX, [SP+0x02]      ;; 1 cycle
        MOVW      BC, AX             ;; 1 cycle
        MOVW      AX, [SP]           ;; 1 cycle
        XCHW      AX, BC             ;; 1 cycle
        CMPW      AX, #0x1           ;; 1 cycle
        XCHW      AX, BC             ;; 1 cycle
        SKNZ                         ;; 1 cycle
        ; ------------------------------------- Block: 7 cycles
        CMPW      AX, #0x0           ;; 1 cycle
        ; ------------------------------------- Block: 1 cycles
??get_resp1_2:
        BNZ       ??compartment3_27  ;; 4 cycles
        ; ------------------------------------- Block: 4 cycles
//  256     {
//  257       log_name2(0, 0, 1, 0, 0);
        MOV       E, #0x0            ;; 1 cycle
        MOV       B, #0x0            ;; 1 cycle
        MOV       C, #0x1            ;; 1 cycle
        MOV       X, #0x0            ;; 1 cycle
        MOV       A, #0x0            ;; 1 cycle
          CFI FunCall _log_name2
        CALL      _log_name2         ;; 3 cycles
        BR        S:??compartment3_28  ;; 3 cycles
          CFI FunCall _fill_0b
        ; ------------------------------------- Block: 11 cycles
//  258     }
//  259     else
//  260     {
//  261       fill_0b();
??compartment3_27:
        CALL      _fill_0b           ;; 3 cycles
        ; ------------------------------------- Block: 3 cycles
//  262     }
//  263     break;
??compartment3_28:
        BR        N:??compartment3_29  ;; 3 cycles
        ; ------------------------------------- Block: 3 cycles
//  264     
//  265   case 0x0802:
//  266     if(obis1 == 0x00010000)
??compartment3_11:
        MOVW      AX, [SP+0x02]      ;; 1 cycle
        MOVW      BC, AX             ;; 1 cycle
        MOVW      AX, [SP]           ;; 1 cycle
        XCHW      AX, BC             ;; 1 cycle
        CMPW      AX, #0x1           ;; 1 cycle
        XCHW      AX, BC             ;; 1 cycle
        SKNZ                         ;; 1 cycle
        ; ------------------------------------- Block: 7 cycles
        CMPW      AX, #0x0           ;; 1 cycle
        ; ------------------------------------- Block: 1 cycles
??get_resp1_3:
        BNZ       ??compartment3_30  ;; 4 cycles
        ; ------------------------------------- Block: 4 cycles
//  267     {
//  268       date_time(Now.day, Now.month, Now.year, Now.hour, Now.min, Now.sec, 0x03);
        MOV       X, #0x3            ;; 1 cycle
        PUSH      AX                 ;; 1 cycle
          CFI CFA SP+14
        MOV       A, N:_Now          ;; 1 cycle
        MOV       D, A               ;; 1 cycle
        MOV       A, N:_Now+1        ;; 1 cycle
        MOV       E, A               ;; 1 cycle
        MOV       B, N:_Now+2        ;; 1 cycle
        MOV       C, N:_Now+6        ;; 1 cycle
        MOV       X, N:_Now+5        ;; 1 cycle
        MOV       A, N:_Now+3        ;; 1 cycle
          CFI FunCall _date_time
        CALL      _date_time         ;; 3 cycles
        ADDW      SP, #0x2           ;; 1 cycle
          CFI CFA SP+12
        BR        S:??compartment3_31  ;; 3 cycles
          CFI FunCall _fill_0b
        ; ------------------------------------- Block: 17 cycles
//  269     }
//  270     else
//  271     {
//  272       fill_0b();
??compartment3_30:
        CALL      _fill_0b           ;; 3 cycles
        ; ------------------------------------- Block: 3 cycles
//  273     }
//  274     break;
??compartment3_31:
        BR        N:??compartment3_29  ;; 3 cycles
        ; ------------------------------------- Block: 3 cycles
//  275     
//  276   case 0x0803:
//  277     if(obis1 == 0x00010000)
??compartment3_12:
        MOVW      AX, [SP+0x02]      ;; 1 cycle
        MOVW      BC, AX             ;; 1 cycle
        MOVW      AX, [SP]           ;; 1 cycle
        XCHW      AX, BC             ;; 1 cycle
        CMPW      AX, #0x1           ;; 1 cycle
        XCHW      AX, BC             ;; 1 cycle
        SKNZ                         ;; 1 cycle
        ; ------------------------------------- Block: 7 cycles
        CMPW      AX, #0x0           ;; 1 cycle
        ; ------------------------------------- Block: 1 cycles
??get_resp1_4:
        BNZ       ??compartment3_32  ;; 4 cycles
        ; ------------------------------------- Block: 4 cycles
//  278     {
//  279       info[k]= 0x00;
        MOVW      BC, N:_k           ;; 1 cycle
        MOV       A, #0x0            ;; 1 cycle
        MOV       (_info)[BC], A     ;; 1 cycle
//  280       info[k + 1]= 0x10; /* integer16 */
        MOVW      BC, N:_k           ;; 1 cycle
        MOV       A, #0x10           ;; 1 cycle
        MOV       (_info+1)[BC], A   ;; 1 cycle
//  281       info[k + 2]= 0x01; /* byte-1				//01 */
        MOVW      BC, N:_k           ;; 1 cycle
        MOV       A, #0x1            ;; 1 cycle
        MOV       (_info+2)[BC], A   ;; 1 cycle
//  282       info[k + 3]= 0x4a; /* byte-2				//4a */
        MOVW      BC, N:_k           ;; 1 cycle
        MOV       A, #0x4A           ;; 1 cycle
        MOV       (_info+3)[BC], A   ;; 1 cycle
//  283       info_l();
          CFI FunCall _info_l
        CALL      _info_l            ;; 3 cycles
        BR        S:??compartment3_33  ;; 3 cycles
          CFI FunCall _fill_0b
        ; ------------------------------------- Block: 18 cycles
//  284     }
//  285     else
//  286     {
//  287       fill_0b();
??compartment3_32:
        CALL      _fill_0b           ;; 3 cycles
        ; ------------------------------------- Block: 3 cycles
//  288     }
//  289     break;
??compartment3_33:
        BR        N:??compartment3_29  ;; 3 cycles
        ; ------------------------------------- Block: 3 cycles
//  290     
//  291   case 0x0804:
//  292     if(obis1 == 0x00010000)
??compartment3_13:
        MOVW      AX, [SP+0x02]      ;; 1 cycle
        MOVW      BC, AX             ;; 1 cycle
        MOVW      AX, [SP]           ;; 1 cycle
        XCHW      AX, BC             ;; 1 cycle
        CMPW      AX, #0x1           ;; 1 cycle
        XCHW      AX, BC             ;; 1 cycle
        SKNZ                         ;; 1 cycle
        ; ------------------------------------- Block: 7 cycles
        CMPW      AX, #0x0           ;; 1 cycle
        ; ------------------------------------- Block: 1 cycles
??get_resp1_5:
        BNZ       ??compartment3_34  ;; 4 cycles
        ; ------------------------------------- Block: 4 cycles
//  293     {
//  294       if(flag_rtc_read_error_after_retry == 1)
        MOVW      HL, #LWRD(_flag_rtc2)  ;; 1 cycle
        MOV1      CY, [HL].1         ;; 1 cycle
        BNC       ??compartment3_35  ;; 4 cycles
        ; ------------------------------------- Block: 6 cycles
//  295       {
//  296         unsigned8(0x01);
        MOV       A, #0x1            ;; 1 cycle
          CFI FunCall _unsigned8
        CALL      _unsigned8         ;; 3 cycles
        BR        S:??compartment3_36  ;; 3 cycles
        ; ------------------------------------- Block: 7 cycles
//  297       }
//  298       else
//  299       {
//  300         unsigned8(0x00);
??compartment3_35:
        MOV       A, #0x0            ;; 1 cycle
          CFI FunCall _unsigned8
        CALL      _unsigned8         ;; 3 cycles
        BR        S:??compartment3_36  ;; 3 cycles
          CFI FunCall _fill_0b
        ; ------------------------------------- Block: 7 cycles
//  301       }
//  302     }
//  303     else
//  304     {
//  305       fill_0b();
??compartment3_34:
        CALL      _fill_0b           ;; 3 cycles
        ; ------------------------------------- Block: 3 cycles
//  306     }
//  307     break;
??compartment3_36:
        BR        N:??compartment3_29  ;; 3 cycles
        ; ------------------------------------- Block: 3 cycles
//  308     
//  309   case 0x0805:
//  310   case 0x0806:
//  311   case 0x0807:
//  312   case 0x0808:
//  313     if(obis1 == 0x00010000)
??compartment3_14:
        MOVW      AX, [SP+0x02]      ;; 1 cycle
        MOVW      BC, AX             ;; 1 cycle
        MOVW      AX, [SP]           ;; 1 cycle
        XCHW      AX, BC             ;; 1 cycle
        CMPW      AX, #0x1           ;; 1 cycle
        XCHW      AX, BC             ;; 1 cycle
        SKNZ                         ;; 1 cycle
        ; ------------------------------------- Block: 7 cycles
        CMPW      AX, #0x0           ;; 1 cycle
        ; ------------------------------------- Block: 1 cycles
??get_resp1_6:
        BNZ       ??compartment3_37  ;; 4 cycles
          CFI FunCall _fill_0d
        ; ------------------------------------- Block: 4 cycles
//  314     {
//  315       fill_0d();
        CALL      _fill_0d           ;; 3 cycles
        BR        S:??compartment3_38  ;; 3 cycles
          CFI FunCall _fill_0b
        ; ------------------------------------- Block: 6 cycles
//  316     }
//  317     else
//  318     {
//  319       fill_0b();
??compartment3_37:
        CALL      _fill_0b           ;; 3 cycles
        ; ------------------------------------- Block: 3 cycles
//  320     }
//  321     break;
??compartment3_38:
        BR        N:??compartment3_29  ;; 3 cycles
        ; ------------------------------------- Block: 3 cycles
//  322     
//  323   case 0x0809:
//  324     if(obis1 == 0x00010000)
??compartment3_15:
        MOVW      AX, [SP+0x02]      ;; 1 cycle
        MOVW      BC, AX             ;; 1 cycle
        MOVW      AX, [SP]           ;; 1 cycle
        XCHW      AX, BC             ;; 1 cycle
        CMPW      AX, #0x1           ;; 1 cycle
        XCHW      AX, BC             ;; 1 cycle
        SKNZ                         ;; 1 cycle
        ; ------------------------------------- Block: 7 cycles
        CMPW      AX, #0x0           ;; 1 cycle
        ; ------------------------------------- Block: 1 cycles
??get_resp1_7:
        BNZ       ??compartment3_39  ;; 4 cycles
        ; ------------------------------------- Block: 4 cycles
//  325     {
//  326       enum_d2(0x01);
        MOV       A, #0x1            ;; 1 cycle
          CFI FunCall _enum_d2
        CALL      _enum_d2           ;; 3 cycles
        BR        S:??compartment3_40  ;; 3 cycles
          CFI FunCall _fill_0b
        ; ------------------------------------- Block: 7 cycles
//  327     }
//  328     else
//  329     {
//  330       fill_0b();
??compartment3_39:
        CALL      _fill_0b           ;; 3 cycles
        ; ------------------------------------- Block: 3 cycles
//  331     }
//  332     break;
??compartment3_40:
        BR        N:??compartment3_29  ;; 3 cycles
        ; ------------------------------------- Block: 3 cycles
//  333     
//  334   case 0x0f01:                                /* logical_name */
//  335     if(obis1 == 0x00280000)
??compartment3_16:
        MOVW      AX, [SP+0x02]      ;; 1 cycle
        MOVW      BC, AX             ;; 1 cycle
        MOVW      AX, [SP]           ;; 1 cycle
        XCHW      AX, BC             ;; 1 cycle
        CMPW      AX, #0x28          ;; 1 cycle
        XCHW      AX, BC             ;; 1 cycle
        SKNZ                         ;; 1 cycle
        ; ------------------------------------- Block: 7 cycles
        CMPW      AX, #0x0           ;; 1 cycle
        ; ------------------------------------- Block: 1 cycles
??get_resp1_8:
        BNZ       ??compartment3_41  ;; 4 cycles
        ; ------------------------------------- Block: 4 cycles
//  336     {
//  337       log_name2(0, 0, 40, 0, 0);
        MOV       E, #0x0            ;; 1 cycle
        MOV       B, #0x0            ;; 1 cycle
        MOV       C, #0x28           ;; 1 cycle
        MOV       X, #0x0            ;; 1 cycle
        MOV       A, #0x0            ;; 1 cycle
          CFI FunCall _log_name2
        CALL      _log_name2         ;; 3 cycles
        BR        S:??compartment3_42  ;; 3 cycles
        ; ------------------------------------- Block: 11 cycles
//  338     }
//  339     else if(obis1 == 0x00280001)
??compartment3_41:
        MOVW      AX, [SP+0x02]      ;; 1 cycle
        MOVW      BC, AX             ;; 1 cycle
        MOVW      AX, [SP]           ;; 1 cycle
        XCHW      AX, BC             ;; 1 cycle
        CMPW      AX, #0x28          ;; 1 cycle
        XCHW      AX, BC             ;; 1 cycle
        SKNZ                         ;; 1 cycle
        ; ------------------------------------- Block: 7 cycles
        CMPW      AX, #0x1           ;; 1 cycle
        ; ------------------------------------- Block: 1 cycles
??get_resp1_9:
        BNZ       ??compartment3_43  ;; 4 cycles
        ; ------------------------------------- Block: 4 cycles
//  340     {
//  341       log_name2(0, 0, 40, 0, 1);
        MOV       E, #0x1            ;; 1 cycle
        MOV       B, #0x0            ;; 1 cycle
        MOV       C, #0x28           ;; 1 cycle
        MOV       X, #0x0            ;; 1 cycle
        MOV       A, #0x0            ;; 1 cycle
          CFI FunCall _log_name2
        CALL      _log_name2         ;; 3 cycles
        BR        S:??compartment3_42  ;; 3 cycles
          CFI FunCall _fill_0b
        ; ------------------------------------- Block: 11 cycles
//  342     }
//  343     else
//  344     {
//  345       fill_0b();
??compartment3_43:
        CALL      _fill_0b           ;; 3 cycles
        ; ------------------------------------- Block: 3 cycles
//  346     }
//  347     break;
??compartment3_42:
        BR        N:??compartment3_29  ;; 3 cycles
        ; ------------------------------------- Block: 3 cycles
//  348     
//  349   case 0x0f02:                                /* object_list */
//  350     if((obis1 == 0x00280000) || (obis1 == 0x00280001))
??compartment3_17:
        MOVW      AX, [SP+0x02]      ;; 1 cycle
        MOVW      BC, AX             ;; 1 cycle
        MOVW      AX, [SP]           ;; 1 cycle
        XCHW      AX, BC             ;; 1 cycle
        CMPW      AX, #0x28          ;; 1 cycle
        XCHW      AX, BC             ;; 1 cycle
        SKNZ                         ;; 1 cycle
        ; ------------------------------------- Block: 7 cycles
        CMPW      AX, #0x0           ;; 1 cycle
        ; ------------------------------------- Block: 1 cycles
??get_resp1_10:
        BZ        ??compartment3_44  ;; 4 cycles
        ; ------------------------------------- Block: 4 cycles
        MOVW      AX, [SP+0x02]      ;; 1 cycle
        MOVW      BC, AX             ;; 1 cycle
        MOVW      AX, [SP]           ;; 1 cycle
        XCHW      AX, BC             ;; 1 cycle
        CMPW      AX, #0x28          ;; 1 cycle
        XCHW      AX, BC             ;; 1 cycle
        SKNZ                         ;; 1 cycle
        ; ------------------------------------- Block: 7 cycles
        CMPW      AX, #0x1           ;; 1 cycle
        ; ------------------------------------- Block: 1 cycles
??get_resp1_11:
        BNZ       ??compartment3_45  ;; 4 cycles
          CFI FunCall _object_list
        ; ------------------------------------- Block: 4 cycles
//  351     {
//  352       object_list();
??compartment3_44:
        CALL      _object_list       ;; 3 cycles
        BR        S:??compartment3_46  ;; 3 cycles
          CFI FunCall _fill_0b
        ; ------------------------------------- Block: 6 cycles
//  353     }
//  354     else
//  355     {
//  356       fill_0b();
??compartment3_45:
        CALL      _fill_0b           ;; 3 cycles
        ; ------------------------------------- Block: 3 cycles
//  357     }
//  358     break;
??compartment3_46:
        BR        N:??compartment3_29  ;; 3 cycles
        ; ------------------------------------- Block: 3 cycles
//  359     
//  360   case 0x0f03:                                /* partners_id */
//  361     if((obis1 == 0x00280000) || (obis1 == 0x00280001))
??compartment3_18:
        MOVW      AX, [SP+0x02]      ;; 1 cycle
        MOVW      BC, AX             ;; 1 cycle
        MOVW      AX, [SP]           ;; 1 cycle
        XCHW      AX, BC             ;; 1 cycle
        CMPW      AX, #0x28          ;; 1 cycle
        XCHW      AX, BC             ;; 1 cycle
        SKNZ                         ;; 1 cycle
        ; ------------------------------------- Block: 7 cycles
        CMPW      AX, #0x0           ;; 1 cycle
        ; ------------------------------------- Block: 1 cycles
??get_resp1_12:
        BZ        ??compartment3_47  ;; 4 cycles
        ; ------------------------------------- Block: 4 cycles
        MOVW      AX, [SP+0x02]      ;; 1 cycle
        MOVW      BC, AX             ;; 1 cycle
        MOVW      AX, [SP]           ;; 1 cycle
        XCHW      AX, BC             ;; 1 cycle
        CMPW      AX, #0x28          ;; 1 cycle
        XCHW      AX, BC             ;; 1 cycle
        SKNZ                         ;; 1 cycle
        ; ------------------------------------- Block: 7 cycles
        CMPW      AX, #0x1           ;; 1 cycle
        ; ------------------------------------- Block: 1 cycles
??get_resp1_13:
        BNZ       ??compartment3_48  ;; 4 cycles
        ; ------------------------------------- Block: 4 cycles
//  362     {
//  363       info[k++]= 0;
??compartment3_47:
        MOVW      BC, N:_k           ;; 1 cycle
        MOV       A, #0x0            ;; 1 cycle
        MOV       (_info)[BC], A     ;; 1 cycle
        INCW      N:_k               ;; 2 cycles
//  364       structure(2);
        MOV       A, #0x2            ;; 1 cycle
          CFI FunCall _structure
        CALL      _structure         ;; 3 cycles
//  365       if(asso3_flag == 1)
        CMP       N:_asso3_flag, #0x1  ;; 1 cycle
        BNZ       ??compartment3_49  ;; 4 cycles
        ; ------------------------------------- Block: 14 cycles
//  366       {
//  367         integer8(0x40);
        MOV       A, #0x40           ;; 1 cycle
          CFI FunCall _integer8
        CALL      _integer8          ;; 3 cycles
        BR        S:??compartment3_50  ;; 3 cycles
        ; ------------------------------------- Block: 7 cycles
//  368       }
//  369       else if(asso2_flag == 1)
??compartment3_49:
        CMP       N:_asso2_flag, #0x1  ;; 1 cycle
        BNZ       ??compartment3_51  ;; 4 cycles
        ; ------------------------------------- Block: 5 cycles
//  370       {
//  371         integer8(0x30);
        MOV       A, #0x30           ;; 1 cycle
          CFI FunCall _integer8
        CALL      _integer8          ;; 3 cycles
        BR        S:??compartment3_50  ;; 3 cycles
        ; ------------------------------------- Block: 7 cycles
//  372       }
//  373       else if(asso1_flag == 1)
??compartment3_51:
        CMP       N:_asso1_flag, #0x1  ;; 1 cycle
        BNZ       ??compartment3_52  ;; 4 cycles
        ; ------------------------------------- Block: 5 cycles
//  374       {
//  375         integer8(0x20);
        MOV       A, #0x20           ;; 1 cycle
          CFI FunCall _integer8
        CALL      _integer8          ;; 3 cycles
        BR        S:??compartment3_50  ;; 3 cycles
        ; ------------------------------------- Block: 7 cycles
//  376       }
//  377       else
//  378       {
//  379         integer8(0x10);
??compartment3_52:
        MOV       A, #0x10           ;; 1 cycle
          CFI FunCall _integer8
        CALL      _integer8          ;; 3 cycles
        ; ------------------------------------- Block: 4 cycles
//  380       }
//  381       
//  382       val_2byt(0x00, 0x01);
??compartment3_50:
        MOV       X, #0x1            ;; 1 cycle
        MOV       A, #0x0            ;; 1 cycle
          CFI FunCall _val_2byt
        CALL      _val_2byt          ;; 3 cycles
        BR        S:??compartment3_53  ;; 3 cycles
          CFI FunCall _fill_0b
        ; ------------------------------------- Block: 8 cycles
//  383     }
//  384     else
//  385     {
//  386       fill_0b();
??compartment3_48:
        CALL      _fill_0b           ;; 3 cycles
        ; ------------------------------------- Block: 3 cycles
//  387     }
//  388     break;
??compartment3_53:
        BR        N:??compartment3_29  ;; 3 cycles
        ; ------------------------------------- Block: 3 cycles
//  389     
//  390   case 0x0f04:                                /* application_context_name */
//  391     if((obis1 == 0x00280000) || (obis1 == 0x00280001))
??compartment3_19:
        MOVW      AX, [SP+0x02]      ;; 1 cycle
        MOVW      BC, AX             ;; 1 cycle
        MOVW      AX, [SP]           ;; 1 cycle
        XCHW      AX, BC             ;; 1 cycle
        CMPW      AX, #0x28          ;; 1 cycle
        XCHW      AX, BC             ;; 1 cycle
        SKNZ                         ;; 1 cycle
        ; ------------------------------------- Block: 7 cycles
        CMPW      AX, #0x0           ;; 1 cycle
        ; ------------------------------------- Block: 1 cycles
??get_resp1_14:
        BZ        ??compartment3_54  ;; 4 cycles
        ; ------------------------------------- Block: 4 cycles
        MOVW      AX, [SP+0x02]      ;; 1 cycle
        MOVW      BC, AX             ;; 1 cycle
        MOVW      AX, [SP]           ;; 1 cycle
        XCHW      AX, BC             ;; 1 cycle
        CMPW      AX, #0x28          ;; 1 cycle
        XCHW      AX, BC             ;; 1 cycle
        SKNZ                         ;; 1 cycle
        ; ------------------------------------- Block: 7 cycles
        CMPW      AX, #0x1           ;; 1 cycle
        ; ------------------------------------- Block: 1 cycles
??get_resp1_15:
        BNZ       ??compartment3_55  ;; 4 cycles
          CFI FunCall _app_con
        ; ------------------------------------- Block: 4 cycles
//  392     {
//  393       app_con();
??compartment3_54:
        CALL      _app_con           ;; 3 cycles
        BR        S:??compartment3_56  ;; 3 cycles
          CFI FunCall _fill_0b
        ; ------------------------------------- Block: 6 cycles
//  394     }
//  395     else
//  396     {
//  397       fill_0b();
??compartment3_55:
        CALL      _fill_0b           ;; 3 cycles
        ; ------------------------------------- Block: 3 cycles
//  398     }
//  399     break;
??compartment3_56:
        BR        N:??compartment3_29  ;; 3 cycles
        ; ------------------------------------- Block: 3 cycles
//  400     
//  401   case 0x0f05:                                /* xDLMS_context_info */
//  402     if((obis1 == 0x00280000) || (obis1 == 0x00280001))
??compartment3_20:
        MOVW      AX, [SP+0x02]      ;; 1 cycle
        MOVW      BC, AX             ;; 1 cycle
        MOVW      AX, [SP]           ;; 1 cycle
        XCHW      AX, BC             ;; 1 cycle
        CMPW      AX, #0x28          ;; 1 cycle
        XCHW      AX, BC             ;; 1 cycle
        SKNZ                         ;; 1 cycle
        ; ------------------------------------- Block: 7 cycles
        CMPW      AX, #0x0           ;; 1 cycle
        ; ------------------------------------- Block: 1 cycles
??get_resp1_16:
        BZ        ??compartment3_57  ;; 4 cycles
        ; ------------------------------------- Block: 4 cycles
        MOVW      AX, [SP+0x02]      ;; 1 cycle
        MOVW      BC, AX             ;; 1 cycle
        MOVW      AX, [SP]           ;; 1 cycle
        XCHW      AX, BC             ;; 1 cycle
        CMPW      AX, #0x28          ;; 1 cycle
        XCHW      AX, BC             ;; 1 cycle
        SKNZ                         ;; 1 cycle
        ; ------------------------------------- Block: 7 cycles
        CMPW      AX, #0x1           ;; 1 cycle
        ; ------------------------------------- Block: 1 cycles
??get_resp1_17:
        BNZ       ??compartment3_58  ;; 4 cycles
          CFI FunCall _xdlms_type
        ; ------------------------------------- Block: 4 cycles
//  403     {
//  404       xdlms_type();
??compartment3_57:
        CALL      _xdlms_type        ;; 3 cycles
        BR        S:??compartment3_59  ;; 3 cycles
          CFI FunCall _fill_0b
        ; ------------------------------------- Block: 6 cycles
//  405     }
//  406     else
//  407     {
//  408       fill_0b();
??compartment3_58:
        CALL      _fill_0b           ;; 3 cycles
        ; ------------------------------------- Block: 3 cycles
//  409     }
//  410     break;
??compartment3_59:
        BR        N:??compartment3_29  ;; 3 cycles
        ; ------------------------------------- Block: 3 cycles
//  411     
//  412   case 0x0f06:                                /* authentication mech_name */
//  413     if((obis1 == 0x00280000) || (obis1 == 0x00280001))
??compartment3_21:
        MOVW      AX, [SP+0x02]      ;; 1 cycle
        MOVW      BC, AX             ;; 1 cycle
        MOVW      AX, [SP]           ;; 1 cycle
        XCHW      AX, BC             ;; 1 cycle
        CMPW      AX, #0x28          ;; 1 cycle
        XCHW      AX, BC             ;; 1 cycle
        SKNZ                         ;; 1 cycle
        ; ------------------------------------- Block: 7 cycles
        CMPW      AX, #0x0           ;; 1 cycle
        ; ------------------------------------- Block: 1 cycles
??get_resp1_18:
        BZ        ??compartment3_60  ;; 4 cycles
        ; ------------------------------------- Block: 4 cycles
        MOVW      AX, [SP+0x02]      ;; 1 cycle
        MOVW      BC, AX             ;; 1 cycle
        MOVW      AX, [SP]           ;; 1 cycle
        XCHW      AX, BC             ;; 1 cycle
        CMPW      AX, #0x28          ;; 1 cycle
        XCHW      AX, BC             ;; 1 cycle
        SKNZ                         ;; 1 cycle
        ; ------------------------------------- Block: 7 cycles
        CMPW      AX, #0x1           ;; 1 cycle
        ; ------------------------------------- Block: 1 cycles
??get_resp1_19:
        BNZ       ??compartment3_61  ;; 4 cycles
          CFI FunCall _auth_name
        ; ------------------------------------- Block: 4 cycles
//  414     {
//  415       auth_name();
??compartment3_60:
        CALL      _auth_name         ;; 3 cycles
        BR        S:??compartment3_62  ;; 3 cycles
          CFI FunCall _fill_0b
        ; ------------------------------------- Block: 6 cycles
//  416     }
//  417     else
//  418     {
//  419       fill_0b();
??compartment3_61:
        CALL      _fill_0b           ;; 3 cycles
        ; ------------------------------------- Block: 3 cycles
//  420     }
//  421     break;
??compartment3_62:
        BR        N:??compartment3_29  ;; 3 cycles
        ; ------------------------------------- Block: 3 cycles
//  422     
//  423   case 0x0f07:
//  424     if((obis1 == 0x00280000) || (obis1 == 0x00280001))
??compartment3_22:
        MOVW      AX, [SP+0x02]      ;; 1 cycle
        MOVW      BC, AX             ;; 1 cycle
        MOVW      AX, [SP]           ;; 1 cycle
        XCHW      AX, BC             ;; 1 cycle
        CMPW      AX, #0x28          ;; 1 cycle
        XCHW      AX, BC             ;; 1 cycle
        SKNZ                         ;; 1 cycle
        ; ------------------------------------- Block: 7 cycles
        CMPW      AX, #0x0           ;; 1 cycle
        ; ------------------------------------- Block: 1 cycles
??get_resp1_20:
        BZ        ??compartment3_63  ;; 4 cycles
        ; ------------------------------------- Block: 4 cycles
        MOVW      AX, [SP+0x02]      ;; 1 cycle
        MOVW      BC, AX             ;; 1 cycle
        MOVW      AX, [SP]           ;; 1 cycle
        XCHW      AX, BC             ;; 1 cycle
        CMPW      AX, #0x28          ;; 1 cycle
        XCHW      AX, BC             ;; 1 cycle
        SKNZ                         ;; 1 cycle
        ; ------------------------------------- Block: 7 cycles
        CMPW      AX, #0x1           ;; 1 cycle
        ; ------------------------------------- Block: 1 cycles
??get_resp1_21:
        BNZ       ??compartment3_64  ;; 4 cycles
          CFI FunCall _fill_0d
        ; ------------------------------------- Block: 4 cycles
//  425     {
//  426       fill_0d();
??compartment3_63:
        CALL      _fill_0d           ;; 3 cycles
        BR        S:??compartment3_65  ;; 3 cycles
          CFI FunCall _fill_0b
        ; ------------------------------------- Block: 6 cycles
//  427     }
//  428     else
//  429     {
//  430       fill_0b();
??compartment3_64:
        CALL      _fill_0b           ;; 3 cycles
        ; ------------------------------------- Block: 3 cycles
//  431     }
//  432     
//  433     break;
??compartment3_65:
        BR        N:??compartment3_29  ;; 3 cycles
        ; ------------------------------------- Block: 3 cycles
//  434     
//  435   case 0x0f08:                                /* association status */
//  436     if((obis1 == 0x00280000) || (obis1 == 0x00280001))
??compartment3_23:
        MOVW      AX, [SP+0x02]      ;; 1 cycle
        MOVW      BC, AX             ;; 1 cycle
        MOVW      AX, [SP]           ;; 1 cycle
        XCHW      AX, BC             ;; 1 cycle
        CMPW      AX, #0x28          ;; 1 cycle
        XCHW      AX, BC             ;; 1 cycle
        SKNZ                         ;; 1 cycle
        ; ------------------------------------- Block: 7 cycles
        CMPW      AX, #0x0           ;; 1 cycle
        ; ------------------------------------- Block: 1 cycles
??get_resp1_22:
        BZ        ??compartment3_66  ;; 4 cycles
        ; ------------------------------------- Block: 4 cycles
        MOVW      AX, [SP+0x02]      ;; 1 cycle
        MOVW      BC, AX             ;; 1 cycle
        MOVW      AX, [SP]           ;; 1 cycle
        XCHW      AX, BC             ;; 1 cycle
        CMPW      AX, #0x28          ;; 1 cycle
        XCHW      AX, BC             ;; 1 cycle
        SKNZ                         ;; 1 cycle
        ; ------------------------------------- Block: 7 cycles
        CMPW      AX, #0x1           ;; 1 cycle
        ; ------------------------------------- Block: 1 cycles
??get_resp1_23:
        BNZ       ??compartment3_67  ;; 4 cycles
          CFI FunCall _asso_status
        ; ------------------------------------- Block: 4 cycles
//  437     {
//  438       asso_status();
??compartment3_66:
        CALL      _asso_status       ;; 3 cycles
        BR        S:??compartment3_68  ;; 3 cycles
          CFI FunCall _fill_0b
        ; ------------------------------------- Block: 6 cycles
//  439     }
//  440     else
//  441     {
//  442       fill_0b();
??compartment3_67:
        CALL      _fill_0b           ;; 3 cycles
        ; ------------------------------------- Block: 3 cycles
//  443     }
//  444     
//  445     break;
??compartment3_68:
        BR        N:??compartment3_29  ;; 3 cycles
        ; ------------------------------------- Block: 3 cycles
//  446     
//  447   case 0x0101:
//  448     switch(obis1)
??compartment3_8:
        MOVW      AX, [SP+0x02]      ;; 1 cycle
        MOVW      BC, AX             ;; 1 cycle
        MOVW      AX, [SP]           ;; 1 cycle
        MOVW      HL, #LWRD(??get_resp1_0)  ;; 1 cycle
        MOV       ES, #BYTE3(??get_resp1_0)  ;; 1 cycle
        MOV       CS, #BYTE3(_get_resp1)  ;; 1 cycle
        BR        N:?L_VSWITCH_L10   ;; 3 cycles
        ; ------------------------------------- Block: 9 cycles
//  449     {
//  450     case 0x002a0000:                        /* logical device name */
//  451       log_name2(0, 0, 42, 0, 0);
??get_resp1_24:
        MOV       E, #0x0            ;; 1 cycle
        MOV       B, #0x0            ;; 1 cycle
        MOV       C, #0x2A           ;; 1 cycle
        MOV       X, #0x0            ;; 1 cycle
        MOV       A, #0x0            ;; 1 cycle
          CFI FunCall _log_name2
        CALL      _log_name2         ;; 3 cycles
//  452       break;
        BR        S:??compartment3_69  ;; 3 cycles
        ; ------------------------------------- Block: 11 cycles
//  453     case 0x00600100:                        /* meter serial number */
//  454       log_name2(0, 0, 96, 1, 0);
??get_resp1_25:
        MOV       E, #0x0            ;; 1 cycle
        MOV       B, #0x1            ;; 1 cycle
        MOV       C, #0x60           ;; 1 cycle
        MOV       X, #0x0            ;; 1 cycle
        MOV       A, #0x0            ;; 1 cycle
          CFI FunCall _log_name2
        CALL      _log_name2         ;; 3 cycles
//  455       break;
        BR        S:??compartment3_69  ;; 3 cycles
        ; ------------------------------------- Block: 11 cycles
//  456     case 0x01608009:                        /* pcb serial number */
//  457       log_name2(1, 0, 96, 128, 9);
??get_resp1_26:
        MOV       E, #0x9            ;; 1 cycle
        MOV       B, #0x80           ;; 1 cycle
        MOV       C, #0x60           ;; 1 cycle
        MOV       X, #0x0            ;; 1 cycle
        MOV       A, #0x1            ;; 1 cycle
          CFI FunCall _log_name2
        CALL      _log_name2         ;; 3 cycles
//  458       break;
        BR        S:??compartment3_69  ;; 3 cycles
        ; ------------------------------------- Block: 11 cycles
//  459     case 0x01608012:                        /* utility ID */
//  460       log_name2(1, 0, 96, 128, 18);
??get_resp1_27:
        MOV       E, #0x12           ;; 1 cycle
        MOV       B, #0x80           ;; 1 cycle
        MOV       C, #0x60           ;; 1 cycle
        MOV       X, #0x0            ;; 1 cycle
        MOV       A, #0x1            ;; 1 cycle
          CFI FunCall _log_name2
        CALL      _log_name2         ;; 3 cycles
//  461       break;
        BR        S:??compartment3_69  ;; 3 cycles
          CFI FunCall _fill_0b
        ; ------------------------------------- Block: 11 cycles
//  462     default:
//  463       fill_0b();
??get_resp1_28:
        CALL      _fill_0b           ;; 3 cycles
//  464       break;
        ; ------------------------------------- Block: 3 cycles
//  465     }
//  466     break;
??compartment3_69:
        BR        N:??compartment3_29  ;; 3 cycles
        ; ------------------------------------- Block: 3 cycles
//  467   case 0x0102:
//  468     switch(obis1)
??compartment3_9:
        MOVW      AX, [SP+0x02]      ;; 1 cycle
        MOVW      BC, AX             ;; 1 cycle
        MOVW      AX, [SP]           ;; 1 cycle
        MOVW      HL, #LWRD(??get_resp1_1)  ;; 1 cycle
        MOV       ES, #BYTE3(??get_resp1_1)  ;; 1 cycle
        MOV       CS, #BYTE3(_get_resp1)  ;; 1 cycle
        BR        N:?L_VSWITCH_L10   ;; 3 cycles
        ; ------------------------------------- Block: 9 cycles
//  469     {
//  470     case 0x002a0000:                        /* logical device name */
//  471       info[k++]= 0;
??get_resp1_29:
        MOVW      BC, N:_k           ;; 1 cycle
        MOV       A, #0x0            ;; 1 cycle
        MOV       (_info)[BC], A     ;; 1 cycle
        INCW      N:_k               ;; 2 cycles
//  472       logical_device_name(2);
        MOV       A, #0x2            ;; 1 cycle
          CFI FunCall _logical_device_name
        CALL      _logical_device_name  ;; 3 cycles
//  473       break;
        BR        N:??compartment3_29  ;; 3 cycles
        ; ------------------------------------- Block: 12 cycles
//  474     case 0x00600100:                        /* meter serial number */
//  475       info[k++]= 0;
??get_resp1_30:
        MOVW      BC, N:_k           ;; 1 cycle
        MOV       A, #0x0            ;; 1 cycle
        MOV       (_info)[BC], A     ;; 1 cycle
        INCW      N:_k               ;; 2 cycles
//  476       sr_no_ascii();
          CFI FunCall _sr_no_ascii
        CALL      _sr_no_ascii       ;; 3 cycles
//  477       break;
        BR        N:??compartment3_29  ;; 3 cycles
        ; ------------------------------------- Block: 11 cycles
//  478     case 0x01608009:
//  479       if(asso3_flag == 1)
??get_resp1_31:
        CMP       N:_asso3_flag, #0x1  ;; 1 cycle
        BNZ       ??compartment3_70  ;; 4 cycles
        ; ------------------------------------- Block: 5 cycles
//  480       {
//  481         eprom_read(TOU_VAR_SAVE,0,PAGE_1,AUTO_CALC);
        MOV       E, #0x0            ;; 1 cycle
        MOV       B, #0x0            ;; 1 cycle
        MOV       C, #0x0            ;; 1 cycle
        MOVW      AX, #0x7F0         ;; 1 cycle
          CFI FunCall _eprom_read
        CALL      _eprom_read        ;; 3 cycles
//  482         if(opr_data[10] != 0x01)
        CMP       N:_opr_data+10, #0x1  ;; 1 cycle
        BZ        ??compartment3_71  ;; 4 cycles
        ; ------------------------------------- Block: 12 cycles
//  483         {
//  484           val_4byt2(0x00, 0x00, 0x00, 0x00);
        MOV       B, #0x0            ;; 1 cycle
        MOV       C, #0x0            ;; 1 cycle
        MOV       X, #0x0            ;; 1 cycle
        MOV       A, #0x0            ;; 1 cycle
          CFI FunCall _val_4byt2
        CALL      _val_4byt2         ;; 3 cycles
        BR        S:??compartment3_72  ;; 3 cycles
        ; ------------------------------------- Block: 10 cycles
//  485         }
//  486         else
//  487         {
//  488           val_4byt2(opr_data[6], opr_data[7], opr_data[8], opr_data[9]);
??compartment3_71:
        MOV       B, N:_opr_data+9   ;; 1 cycle
        MOV       C, N:_opr_data+8   ;; 1 cycle
        MOV       X, N:_opr_data+7   ;; 1 cycle
        MOV       A, N:_opr_data+6   ;; 1 cycle
          CFI FunCall _val_4byt2
        CALL      _val_4byt2         ;; 3 cycles
        BR        S:??compartment3_72  ;; 3 cycles
          CFI FunCall _fill_0d
        ; ------------------------------------- Block: 10 cycles
//  489         }
//  490       }
//  491       else
//  492       {
//  493         fill_0d();
??compartment3_70:
        CALL      _fill_0d           ;; 3 cycles
        ; ------------------------------------- Block: 3 cycles
//  494       }
//  495       
//  496       break;
??compartment3_72:
        BR        N:??compartment3_29  ;; 3 cycles
        ; ------------------------------------- Block: 3 cycles
//  497     case 0x0160800E:
//  498       if(asso3_flag == 1)
??get_resp1_32:
        CMP       N:_asso3_flag, #0x1  ;; 1 cycle
        BNZ       ??compartment3_73  ;; 4 cycles
        ; ------------------------------------- Block: 5 cycles
//  499       {
//  500         info[k++]= 0;
        MOVW      BC, N:_k           ;; 1 cycle
        MOV       A, #0x0            ;; 1 cycle
        MOV       (_info)[BC], A     ;; 1 cycle
        INCW      N:_k               ;; 2 cycles
//  501         fill_pcb_firm_ver_calib_status();
          CFI FunCall _fill_pcb_firm_ver_calib_status
        CALL      _fill_pcb_firm_ver_calib_status  ;; 3 cycles
        BR        S:??compartment3_74  ;; 3 cycles
          CFI FunCall _fill_0d
        ; ------------------------------------- Block: 11 cycles
//  502       }
//  503       else
//  504       {
//  505         fill_0d();
??compartment3_73:
        CALL      _fill_0d           ;; 3 cycles
        ; ------------------------------------- Block: 3 cycles
//  506       }
//  507       
//  508       break;
??compartment3_74:
        BR        N:??compartment3_29  ;; 3 cycles
        ; ------------------------------------- Block: 3 cycles
//  509     case 0x01608011: /* RTC calibration status */
//  510       if(asso3_flag == 1)
??get_resp1_33:
        CMP       N:_asso3_flag, #0x1  ;; 1 cycle
        BNZ       ??compartment3_75  ;; 4 cycles
          CFI FunCall _fill_rtc_calib
        ; ------------------------------------- Block: 5 cycles
//  511       {
//  512         fill_rtc_calib();
        CALL      _fill_rtc_calib    ;; 3 cycles
        BR        S:??compartment3_76  ;; 3 cycles
          CFI FunCall _fill_0d
        ; ------------------------------------- Block: 6 cycles
//  513       }
//  514       else
//  515       {
//  516         fill_0d();
??compartment3_75:
        CALL      _fill_0d           ;; 3 cycles
        ; ------------------------------------- Block: 3 cycles
//  517       }
//  518       
//  519       break;
??compartment3_76:
        BR        N:??compartment3_29  ;; 3 cycles
        ; ------------------------------------- Block: 3 cycles
//  520     case 0x0160803C:            //Calibration enable and reset(1.0.96.128.60.255)
//  521       if(asso3_flag == 1)
??get_resp1_34:
        CMP       N:_asso3_flag, #0x1  ;; 1 cycle
        BNZ       ??compartment3_77  ;; 4 cycles
        ; ------------------------------------- Block: 5 cycles
//  522       {
//  523         if(cal_done_f != 1)
        CMP       N:_cal_done_f, #0x1  ;; 1 cycle
        BZ        ??compartment3_78  ;; 4 cycles
        ; ------------------------------------- Block: 5 cycles
//  524         {
//  525           val_1byt(1,1);
        MOV       X, #0x1            ;; 1 cycle
        MOV       A, #0x1            ;; 1 cycle
          CFI FunCall _val_1byt
        CALL      _val_1byt          ;; 3 cycles
        BR        S:??compartment3_79  ;; 3 cycles
        ; ------------------------------------- Block: 8 cycles
//  526         }
//  527         else
//  528         {	
//  529           val_1byt(0,1);
??compartment3_78:
        MOV       X, #0x1            ;; 1 cycle
        MOV       A, #0x0            ;; 1 cycle
          CFI FunCall _val_1byt
        CALL      _val_1byt          ;; 3 cycles
        BR        S:??compartment3_79  ;; 3 cycles
          CFI FunCall _fill_0d
        ; ------------------------------------- Block: 8 cycles
//  530         }
//  531       }
//  532       else
//  533         fill_0d();
??compartment3_77:
        CALL      _fill_0d           ;; 3 cycles
//  534       break;
        BR        S:??compartment3_79  ;; 3 cycles
        ; ------------------------------------- Block: 6 cycles
//  535     case 0x0160803E:                                  //instant Eprom testing
//  536       if((asso3_flag==1) && (0==fg_done_f))
??get_resp1_35:
        CMP       N:_asso3_flag, #0x1  ;; 1 cycle
        BNZ       ??compartment3_80  ;; 4 cycles
        ; ------------------------------------- Block: 5 cycles
        MOVW      HL, #LWRD(_flag1)  ;; 1 cycle
        MOV1      CY, [HL].1         ;; 1 cycle
        BC        ??compartment3_80  ;; 4 cycles
        ; ------------------------------------- Block: 6 cycles
//  537       {
//  538         // structure--- No of Memories
//  539         // MemoryStatus1,MemoryStatus2--- Memory Type	1:16K, 2:256K, 3:512K, 4:1Mb
//  540         info[k++]=0x00;
        MOVW      BC, N:_k           ;; 1 cycle
        MOV       A, #0x0            ;; 1 cycle
        MOV       (_info)[BC], A     ;; 1 cycle
        INCW      N:_k               ;; 2 cycles
//  541         structure(NoOfMemoryPresent);
        MOV       A, #0x2            ;; 1 cycle
          CFI FunCall _structure
        CALL      _structure         ;; 3 cycles
//  542         val_1byt(MemoryStatus1,0);
        MOV       X, #0x0            ;; 1 cycle
        MOV       A, N:_MemoryStatus1  ;; 1 cycle
          CFI FunCall _val_1byt
        CALL      _val_1byt          ;; 3 cycles
//  543 #if NoOfMemoryPresent ==2
//  544         val_1byt(MemoryStatus2,0);
        MOV       X, #0x0            ;; 1 cycle
        MOV       A, N:_MemoryStatus2  ;; 1 cycle
          CFI FunCall _val_1byt
        CALL      _val_1byt          ;; 3 cycles
        BR        S:??compartment3_79  ;; 3 cycles
          CFI FunCall _fill_0d
        ; ------------------------------------- Block: 22 cycles
//  545 #endif
//  546       }
//  547       else
//  548       {
//  549         fill_0d();
??compartment3_80:
        CALL      _fill_0d           ;; 3 cycles
//  550       }
//  551       break;
        BR        S:??compartment3_79  ;; 3 cycles
        ; ------------------------------------- Block: 6 cycles
//  552     case 0x01608012: /* utility id */
//  553       if(asso3_flag == 1)
??get_resp1_36:
        CMP       N:_asso3_flag, #0x1  ;; 1 cycle
        BNZ       ??compartment3_81  ;; 4 cycles
          CFI FunCall _fill_utility_id
        ; ------------------------------------- Block: 5 cycles
//  554       {
//  555         fill_utility_id();
        CALL      _fill_utility_id   ;; 3 cycles
        BR        S:??compartment3_79  ;; 3 cycles
          CFI FunCall _fill_0d
        ; ------------------------------------- Block: 6 cycles
//  556       }
//  557       else
//  558       {
//  559         fill_0d();
??compartment3_81:
        CALL      _fill_0d           ;; 3 cycles
//  560       }
//  561       
//  562       break;
        BR        S:??compartment3_79  ;; 3 cycles
        ; ------------------------------------- Block: 6 cycles
//  563       
//  564     case 0x00608200:
//  565       ////////////            fill_lcdmap_zero();
//  566       ////////////            lcd_map[4]|=LCD_7r;
//  567       ////////////            lcd_map[5]|=LCD_7e;
//  568       ////////////            lcd_map[6]|=LCD_7A;
//  569       ////////////            lcd_map[7]|=LCD_7d;
//  570       ////////////            lcd_map[8]=0x00;
//  571       ////////////            lcd_map[9]|=LCD_7C;
//  572       ////////////            lcd_map[10]|=LCD_7r;
//  573       ////////////            lcd_map[11]|=LCD_7C;
//  574       ////////////            write_to_lcd();
//  575       ////////////            
//  576       ////////////            if(1==pwrup_crc_cal_f)
//  577       ////////////            {
//  578       ////////////                pwrup_crc_cal_f=0;
//  579       ////////////                hw_crc = calculate_flash_crc32_hw(FLASH_START_ADDRESS,FLASH_LENGTH);
//  580       ////////////            }
//  581       ////////////            long_int= hw_crc;
//  582       ////////////            long_to_char_array();
//  583       ////////////            val_4byt2(char_array[0],char_array[1],char_array[2],char_array[3]);
//  584       break;
//  585     case 0x00608300:                                  //instant Hardware switches testing
//  586       if(asso3_flag == 1 && fg_done_f == 0)
??get_resp1_37:
        CMP       N:_asso3_flag, #0x1  ;; 1 cycle
        BNZ       ??compartment3_82  ;; 4 cycles
        ; ------------------------------------- Block: 5 cycles
        MOVW      HL, #LWRD(_flag1)  ;; 1 cycle
        MOV1      CY, [HL].1         ;; 1 cycle
        BC        ??compartment3_82  ;; 4 cycles
        ; ------------------------------------- Block: 6 cycles
//  587       {
//  588         hardware_testing_status(1);
        MOV       A, #0x1            ;; 1 cycle
          CFI FunCall _hardware_testing_status
        CALL      _hardware_testing_status  ;; 3 cycles
        BR        S:??compartment3_29  ;; 3 cycles
          CFI FunCall _fill_0d
        ; ------------------------------------- Block: 7 cycles
//  589       }
//  590       else
//  591       {
//  592         fill_0d();
??compartment3_82:
        CALL      _fill_0d           ;; 3 cycles
//  593       }
//  594       break;
        BR        S:??compartment3_29  ;; 3 cycles
          CFI FunCall _fill_0b
        ; ------------------------------------- Block: 6 cycles
//  595     default:
//  596       fill_0b();
??get_resp1_38:
        CALL      _fill_0b           ;; 3 cycles
//  597       break;
        ; ------------------------------------- Block: 3 cycles
//  598     }
//  599     break;
??compartment3_79:
        BR        S:??compartment3_29  ;; 3 cycles
        ; ------------------------------------- Block: 3 cycles
//  600   case 0x3f02:
//  601     switch(obis1)
??compartment3_24:
        MOVW      AX, [SP+0x02]      ;; 1 cycle
        MOVW      BC, AX             ;; 1 cycle
        MOVW      AX, [SP]           ;; 1 cycle
        XCHW      AX, BC             ;; 1 cycle
        CMPW      AX, #0x60          ;; 1 cycle
        XCHW      AX, BC             ;; 1 cycle
        SKNZ                         ;; 1 cycle
        ; ------------------------------------- Block: 7 cycles
        CMPW      AX, #0xA01         ;; 1 cycle
        ; ------------------------------------- Block: 1 cycles
??get_resp1_39:
        BNZ       ??compartment3_83  ;; 4 cycles
        ; ------------------------------------- Block: 4 cycles
//  602     {
//  603     case 0x00600A01:
//  604       if(asso3_flag == 1)
        CMP       N:_asso3_flag, #0x1  ;; 1 cycle
        BNZ       ??compartment3_84  ;; 4 cycles
          CFI FunCall _tamper_status
        ; ------------------------------------- Block: 5 cycles
//  605       {
//  606         tamper_status();
        CALL      _tamper_status     ;; 3 cycles
        BR        S:??compartment3_29  ;; 3 cycles
          CFI FunCall _fill_0d
        ; ------------------------------------- Block: 6 cycles
//  607       }
//  608       else
//  609       {
//  610         fill_0d();
??compartment3_84:
        CALL      _fill_0d           ;; 3 cycles
//  611       }
//  612       break;
        BR        S:??compartment3_29  ;; 3 cycles
          CFI FunCall _fill_0b
        ; ------------------------------------- Block: 6 cycles
//  613       
//  614       ////////////        case 0x01600500:
//  615       ////////////            if(asso3_flag == 1)
//  616       ////////////            {
//  617       ////////////                self_diag_status();
//  618       ////////////            }
//  619       ////////////            else
//  620       ////////////            {
//  621       ////////////                fill_0d();
//  622       ////////////            }
//  623       ////////////            break;
//  624       ////////////            
//  625     default:
//  626       fill_0b();
??compartment3_83:
        CALL      _fill_0b           ;; 3 cycles
//  627       break;
//  628     }
//  629     break;
        BR        S:??compartment3_29  ;; 3 cycles
        ; ------------------------------------- Block: 6 cycles
//  630   case 0x3f03:
//  631     switch(obis1)
??compartment3_25:
        MOVW      AX, [SP+0x02]      ;; 1 cycle
        MOVW      BC, AX             ;; 1 cycle
        MOVW      AX, [SP]           ;; 1 cycle
        CMPW      AX, #0xA01         ;; 1 cycle
        BNZ       ??compartment3_85  ;; 4 cycles
        ; ------------------------------------- Block: 8 cycles
        XCHW      AX, BC             ;; 1 cycle
        CMPW      AX, #0x60          ;; 1 cycle
        XCHW      AX, BC             ;; 1 cycle
        ; ------------------------------------- Block: 3 cycles
??compartment3_85:
        BZ        ??compartment3_86  ;; 4 cycles
        ; ------------------------------------- Block: 4 cycles
        CMPW      AX, #0x500         ;; 1 cycle
        BNZ       ??compartment3_87  ;; 4 cycles
        ; ------------------------------------- Block: 5 cycles
        XCHW      AX, BC             ;; 1 cycle
        CMPW      AX, #0x160         ;; 1 cycle
        XCHW      AX, BC             ;; 1 cycle
        ; ------------------------------------- Block: 3 cycles
??compartment3_87:
        BZ        ??compartment3_88  ;; 4 cycles
        ; ------------------------------------- Block: 4 cycles
        BR        S:??compartment3_89  ;; 3 cycles
        ; ------------------------------------- Block: 3 cycles
//  632     {
//  633     case 0x00600A01:                        /* tamper status */
//  634       if(asso3_flag == 1)
??compartment3_86:
        CMP       N:_asso3_flag, #0x1  ;; 1 cycle
        BNZ       ??compartment3_90  ;; 4 cycles
          CFI FunCall _fill_0d
        ; ------------------------------------- Block: 5 cycles
//  635       {
//  636         /*	tamper_mapping();  */
//  637         fill_0d();
        CALL      _fill_0d           ;; 3 cycles
        BR        S:??compartment3_29  ;; 3 cycles
          CFI FunCall _fill_0d
        ; ------------------------------------- Block: 6 cycles
//  638       }
//  639       else
//  640       {
//  641         fill_0d();
??compartment3_90:
        CALL      _fill_0d           ;; 3 cycles
//  642       }
//  643       break;
        BR        S:??compartment3_29  ;; 3 cycles
          CFI FunCall _fill_0d
        ; ------------------------------------- Block: 6 cycles
//  644       
//  645     case 0x01600500:
//  646       fill_0d();
??compartment3_88:
        CALL      _fill_0d           ;; 3 cycles
//  647       break;
        BR        S:??compartment3_29  ;; 3 cycles
          CFI FunCall _fill_0b
        ; ------------------------------------- Block: 6 cycles
//  648       
//  649     default:
//  650       fill_0b();
??compartment3_89:
        CALL      _fill_0b           ;; 3 cycles
//  651       break;
//  652     }
//  653     break;
        BR        S:??compartment3_29  ;; 3 cycles
          CFI FunCall _fill_0b
        ; ------------------------------------- Block: 6 cycles
//  654   default:
//  655     fill_0b();
??compartment3_26:
        CALL      _fill_0b           ;; 3 cycles
//  656     break;
        ; ------------------------------------- Block: 3 cycles
//  657   }
//  658 }
??compartment3_29:
        ADDW      SP, #0x8           ;; 1 cycle
          CFI CFA SP+4
        RET                          ;; 6 cycles
          CFI EndBlock cfiBlock2
        ; ------------------------------------- Block: 7 cycles
        ; ------------------------------------- Total: 1057 cycles
//  659 
//  660 /* ************************************************************************* */

        SECTION `.text`:CODE:NOROOT(0)
          CFI Block cfiBlock3 Using cfiCommon0
          CFI Function _get_resp
        CODE
//  661 void get_resp(void)
//  662 {
_get_resp:
        ; * Stack frame (at entry) *
        ; Param size: 0
        ; Auto size: 42
        SUBW      SP, #0x2A          ;; 1 cycle
          CFI CFA SP+46
//  663   uint16_t classatt, i_g, address, lu16_add, lu16_add_temp;
//  664   unsigned long int obis1;
//  665   uint8_t class_att[2], ident= 1, not_found_f= 1, lu8_i, lu8_j, lu8_k,temp_arr[2];
        MOV       A, #0x1            ;; 1 cycle
        MOV       [SP+0x09], A       ;; 1 cycle
        MOV       A, #0x1            ;; 1 cycle
        MOV       [SP+0x10], A       ;; 1 cycle
//  666   
//  667   class_att[0]= info[7];
        MOV       A, N:_info+7       ;; 1 cycle
        MOV       [SP+0x0E], A       ;; 1 cycle
//  668   class_att[1]= attribute_id;
        MOV       A, N:_attribute_id  ;; 1 cycle
        MOV       [SP+0x0F], A       ;; 1 cycle
//  669   if(attribute_id == 1)
        CMP       N:_attribute_id, #0x1  ;; 1 cycle
        BNZ       ??compartment3_91  ;; 4 cycles
        ; ------------------------------------- Block: 14 cycles
//  670   {
//  671     class_att[0]= 0;
        MOV       A, #0x0            ;; 1 cycle
        MOV       [SP+0x0E], A       ;; 1 cycle
        ; ------------------------------------- Block: 2 cycles
//  672   }
//  673   
//  674   char_array_ptr= &class_att[0];
??compartment3_91:
        MOVW      AX, SP             ;; 1 cycle
        ADDW      AX, #0xE           ;; 1 cycle
        MOVW      N:_char_array_ptr, AX  ;; 1 cycle
//  675   classatt= (uint16_t)class_att[0] * 256 + class_att[1]; /* char_array_to_int(); */
        MOV       A, [SP+0x0E]       ;; 1 cycle
        MOV       X, A               ;; 1 cycle
        MOV       A, #0x0            ;; 1 cycle
        MOVW      BC, #0x100         ;; 1 cycle
        MULHU                        ;; 2 cycles
        MOVW      HL, AX             ;; 1 cycle
        MOV       A, [SP+0x0F]       ;; 1 cycle
        MOV       E, A               ;; 1 cycle
        MOV       D, #0x0            ;; 1 cycle
        MOVW      AX, HL             ;; 1 cycle
        ADDW      AX, DE             ;; 1 cycle
        MOVW      [SP+0x12], AX      ;; 1 cycle
//  676   obis1= obis_short_cal(&info[8]);
        MOVW      AX, #LWRD(_info+8)  ;; 1 cycle
          CFI FunCall _obis_short_cal
        CALL      _obis_short_cal    ;; 3 cycles
        MOVW      [SP+0x04], AX      ;; 1 cycle
        XCHW      AX, BC             ;; 1 cycle
        MOVW      [SP+0x06], AX      ;; 1 cycle
        XCHW      AX, BC             ;; 1 cycle
//  677   
//  678   switch(classatt)
        MOVW      AX, [SP+0x12]      ;; 1 cycle
        SUBW      AX, #0x1           ;; 1 cycle
        SKNZ                         ;; 4 cycles
        BR        N:??compartment3_92  ;; 4 cycles
        ; ------------------------------------- Block: 30 cycles
        SUBW      AX, #0x101         ;; 1 cycle
        SKNZ                         ;; 4 cycles
        BR        N:??compartment3_93  ;; 4 cycles
        ; ------------------------------------- Block: 5 cycles
        SUBW      AX, #0x200         ;; 1 cycle
        SKNZ                         ;; 4 cycles
        BR        N:??compartment3_94  ;; 4 cycles
        ; ------------------------------------- Block: 5 cycles
        SUBW      AX, #0x1           ;; 1 cycle
        SKNZ                         ;; 4 cycles
        BR        N:??compartment3_95  ;; 4 cycles
        ; ------------------------------------- Block: 5 cycles
        SUBW      AX, #0xFF          ;; 1 cycle
        SKNZ                         ;; 4 cycles
        BR        N:??compartment3_96  ;; 4 cycles
        ; ------------------------------------- Block: 5 cycles
        SUBW      AX, #0x1           ;; 1 cycle
        SKNZ                         ;; 4 cycles
        BR        N:??compartment3_97  ;; 4 cycles
        ; ------------------------------------- Block: 5 cycles
        SUBW      AX, #0x1           ;; 1 cycle
        SKNZ                         ;; 4 cycles
        BR        N:??compartment3_98  ;; 4 cycles
        ; ------------------------------------- Block: 5 cycles
        SUBW      AX, #0x1           ;; 1 cycle
        SKNZ                         ;; 4 cycles
        BR        N:??compartment3_99  ;; 4 cycles
        ; ------------------------------------- Block: 5 cycles
        SUBW      AX, #0x2FD         ;; 1 cycle
        SKNZ                         ;; 4 cycles
        BR        N:??compartment3_100  ;; 4 cycles
        ; ------------------------------------- Block: 5 cycles
        SUBW      AX, #0x1           ;; 1 cycle
        SKNZ                         ;; 4 cycles
        BR        N:??compartment3_101  ;; 4 cycles
        ; ------------------------------------- Block: 5 cycles
        SUBW      AX, #0x1           ;; 1 cycle
        SKNZ                         ;; 4 cycles
        BR        N:??compartment3_102  ;; 4 cycles
        ; ------------------------------------- Block: 5 cycles
        SUBW      AX, #0x1           ;; 1 cycle
        SKNZ                         ;; 4 cycles
        BR        N:??compartment3_103  ;; 4 cycles
        ; ------------------------------------- Block: 5 cycles
        SUBW      AX, #0x1           ;; 1 cycle
        SKNZ                         ;; 4 cycles
        BR        N:??compartment3_104  ;; 4 cycles
        ; ------------------------------------- Block: 5 cycles
        SUBW      AX, #0x1           ;; 1 cycle
        SKNZ                         ;; 4 cycles
        BR        N:??compartment3_105  ;; 4 cycles
        ; ------------------------------------- Block: 5 cycles
        SUBW      AX, #0x1           ;; 1 cycle
        SKNZ                         ;; 4 cycles
        BR        N:??compartment3_106  ;; 4 cycles
        ; ------------------------------------- Block: 5 cycles
        SUBW      AX, #0xFA          ;; 1 cycle
        SKNZ                         ;; 4 cycles
        BR        N:??compartment3_107  ;; 4 cycles
        ; ------------------------------------- Block: 5 cycles
        SUBW      AX, #0x1           ;; 1 cycle
        SKNZ                         ;; 4 cycles
        BR        N:??compartment3_108  ;; 4 cycles
        ; ------------------------------------- Block: 5 cycles
        SUBW      AX, #0x1           ;; 1 cycle
        SKNZ                         ;; 4 cycles
        BR        N:??compartment3_109  ;; 4 cycles
        ; ------------------------------------- Block: 5 cycles
        SUBW      AX, #0x1           ;; 1 cycle
        CMPW      AX, #0x4           ;; 1 cycle
        SKNC                         ;; 4 cycles
        BR        N:??compartment3_110  ;; 4 cycles
        ; ------------------------------------- Block: 6 cycles
        SUBW      AX, #0x4           ;; 1 cycle
        SKNZ                         ;; 4 cycles
        BR        N:??compartment3_111  ;; 4 cycles
        ; ------------------------------------- Block: 5 cycles
        SUBW      AX, #0xF9          ;; 1 cycle
        SKNZ                         ;; 4 cycles
        BR        N:??compartment3_112  ;; 4 cycles
        ; ------------------------------------- Block: 5 cycles
        SUBW      AX, #0x600         ;; 1 cycle
        CMPW      AX, #0x8           ;; 1 cycle
        SKNC                         ;; 4 cycles
        BR        N:??compartment3_113  ;; 4 cycles
        ; ------------------------------------- Block: 6 cycles
        SUBW      AX, #0x200         ;; 1 cycle
        SKNZ                         ;; 4 cycles
        BR        N:??compartment3_114  ;; 4 cycles
        ; ------------------------------------- Block: 5 cycles
        SUBW      AX, #0x300         ;; 1 cycle
        SKNZ                         ;; 4 cycles
        BR        N:??compartment3_115  ;; 4 cycles
        ; ------------------------------------- Block: 5 cycles
        SUBW      AX, #0x1           ;; 1 cycle
        SKNZ                         ;; 4 cycles
        BR        N:??compartment3_116  ;; 4 cycles
        ; ------------------------------------- Block: 5 cycles
        SUBW      AX, #0x1           ;; 1 cycle
        SKNZ                         ;; 4 cycles
        BR        N:??compartment3_117  ;; 4 cycles
        ; ------------------------------------- Block: 5 cycles
        SUBW      AX, #0x1           ;; 1 cycle
        SKNZ                         ;; 4 cycles
        BR        N:??compartment3_118  ;; 4 cycles
        ; ------------------------------------- Block: 5 cycles
        SUBW      AX, #0x1           ;; 1 cycle
        SKNZ                         ;; 4 cycles
        BR        N:??compartment3_115  ;; 4 cycles
        ; ------------------------------------- Block: 5 cycles
        SUBW      AX, #0x1           ;; 1 cycle
        SKNZ                         ;; 4 cycles
        BR        N:??compartment3_116  ;; 4 cycles
        ; ------------------------------------- Block: 5 cycles
        SUBW      AX, #0x1           ;; 1 cycle
        SKNZ                         ;; 4 cycles
        BR        N:??compartment3_117  ;; 4 cycles
        ; ------------------------------------- Block: 5 cycles
        SUBW      AX, #0x1           ;; 1 cycle
        SKNZ                         ;; 4 cycles
        BR        N:??compartment3_118  ;; 4 cycles
        ; ------------------------------------- Block: 5 cycles
        SUBW      AX, #0x1           ;; 1 cycle
        SKNZ                         ;; 4 cycles
        BR        N:??compartment3_119  ;; 4 cycles
        ; ------------------------------------- Block: 5 cycles
        SUBW      AX, #0x1F8         ;; 1 cycle
        SKNZ                         ;; 4 cycles
        BR        N:??compartment3_120  ;; 4 cycles
        ; ------------------------------------- Block: 5 cycles
        SUBW      AX, #0x1           ;; 1 cycle
        SKNZ                         ;; 4 cycles
        BR        N:??compartment3_121  ;; 4 cycles
        ; ------------------------------------- Block: 5 cycles
        SUBW      AX, #0x1           ;; 1 cycle
        SKNZ                         ;; 4 cycles
        BR        N:??compartment3_122  ;; 4 cycles
        ; ------------------------------------- Block: 5 cycles
        SUBW      AX, #0x28FE        ;; 1 cycle
        SKNZ                         ;; 4 cycles
        BR        N:??compartment3_123  ;; 4 cycles
        ; ------------------------------------- Block: 5 cycles
        BR        N:??compartment3_124  ;; 3 cycles
        ; ------------------------------------- Block: 3 cycles
//  679   {
//  680   case 0x0001:
//  681     if(((asso1_flag) || (asso2_flag)) && (obis1 == 0x00280001))
??compartment3_92:
        CMP0      N:_asso1_flag      ;; 1 cycle
        BNZ       ??compartment3_125  ;; 4 cycles
        ; ------------------------------------- Block: 5 cycles
        CMP0      N:_asso2_flag      ;; 1 cycle
        BZ        ??compartment3_126  ;; 4 cycles
        ; ------------------------------------- Block: 5 cycles
??compartment3_125:
        MOVW      AX, [SP+0x06]      ;; 1 cycle
        MOVW      BC, AX             ;; 1 cycle
        MOVW      AX, [SP+0x04]      ;; 1 cycle
        XCHW      AX, BC             ;; 1 cycle
        CMPW      AX, #0x28          ;; 1 cycle
        XCHW      AX, BC             ;; 1 cycle
        SKNZ                         ;; 1 cycle
        ; ------------------------------------- Block: 7 cycles
        CMPW      AX, #0x1           ;; 1 cycle
        ; ------------------------------------- Block: 1 cycles
??get_resp_13:
        SKNZ                         ;; 1 cycle
          CFI FunCall _fill_0b
        ; ------------------------------------- Block: 1 cycles
//  682     {
//  683       fill_0b();
        CALL      _fill_0b           ;; 3 cycles
        ; ------------------------------------- Block: 3 cycles
//  684     }
//  685     
//  686     for(i_g= 3; i_g <= (OBJ_LIST[2] * 9 + 3); i_g+= 9)
??compartment3_126:
        MOVW      AX, #0x3           ;; 1 cycle
        MOVW      [SP+0x0A], AX      ;; 1 cycle
        ; ------------------------------------- Block: 2 cycles
??get_resp_14:
        MOVW      AX, [SP+0x0A]      ;; 1 cycle
        MOVW      HL, AX             ;; 1 cycle
        MOV       X, N:_OBJ_LIST+2   ;; 1 cycle
        MOV       A, #0x0            ;; 1 cycle
        MOVW      BC, #0x9           ;; 1 cycle
        MULHU                        ;; 2 cycles
        ADDW      AX, #0x3           ;; 1 cycle
        CMPW      AX, HL             ;; 1 cycle
        SKNC                         ;; 4 cycles
        BR        N:??compartment3_127  ;; 4 cycles
        ; ------------------------------------- Block: 13 cycles
//  687     {
//  688       if((OBJ_LIST[i_g + 1] == info[7]) && (OBJ_LIST[i_g + 3] == info[8]) && (OBJ_LIST[i_g + 4] == info[9]) && (OBJ_LIST[i_g + 5] == info[10]) && (OBJ_LIST[i_g + 6] == info[11]) && (OBJ_LIST[i_g + 7] == info[12]))
        MOVW      AX, [SP+0x0A]      ;; 1 cycle
        MOVW      BC, AX             ;; 1 cycle
        MOV       A, (_OBJ_LIST+1)[BC]  ;; 1 cycle
        CMP       A, N:_info+7       ;; 1 cycle
        SKZ                          ;; 4 cycles
        BR        N:??compartment3_128  ;; 4 cycles
        ; ------------------------------------- Block: 8 cycles
        MOVW      AX, [SP+0x0A]      ;; 1 cycle
        MOVW      BC, AX             ;; 1 cycle
        MOV       A, (_OBJ_LIST+3)[BC]  ;; 1 cycle
        CMP       A, N:_info+8       ;; 1 cycle
        SKZ                          ;; 4 cycles
        BR        N:??compartment3_128  ;; 4 cycles
        ; ------------------------------------- Block: 8 cycles
        MOVW      AX, [SP+0x0A]      ;; 1 cycle
        MOVW      BC, AX             ;; 1 cycle
        MOV       A, (_OBJ_LIST+4)[BC]  ;; 1 cycle
        CMP       A, N:_info+9       ;; 1 cycle
        BNZ       ??compartment3_128  ;; 4 cycles
        ; ------------------------------------- Block: 8 cycles
        MOVW      AX, [SP+0x0A]      ;; 1 cycle
        MOVW      BC, AX             ;; 1 cycle
        MOV       A, (_OBJ_LIST+5)[BC]  ;; 1 cycle
        CMP       A, N:_info+10      ;; 1 cycle
        BNZ       ??compartment3_128  ;; 4 cycles
        ; ------------------------------------- Block: 8 cycles
        MOVW      AX, [SP+0x0A]      ;; 1 cycle
        MOVW      BC, AX             ;; 1 cycle
        MOV       A, (_OBJ_LIST+6)[BC]  ;; 1 cycle
        CMP       A, N:_info+11      ;; 1 cycle
        BNZ       ??compartment3_128  ;; 4 cycles
        ; ------------------------------------- Block: 8 cycles
        MOVW      AX, [SP+0x0A]      ;; 1 cycle
        MOVW      BC, AX             ;; 1 cycle
        MOV       A, (_OBJ_LIST+7)[BC]  ;; 1 cycle
        CMP       A, N:_info+12      ;; 1 cycle
        BNZ       ??compartment3_128  ;; 4 cycles
        ; ------------------------------------- Block: 8 cycles
//  689       {
//  690         not_found_f= 0;
        MOV       A, #0x0            ;; 1 cycle
        MOV       [SP+0x10], A       ;; 1 cycle
//  691         if((obis_code[2] == 40) && (((obis_code[4] == 3) && (asso2_flag == 1)) || ((obis_code[4] == 2) && (asso1_flag == 1)) || ((obis_code[4] == 1) || (obis_code[4] == 0))))
        CMP       N:_obis_code+2, #0x28  ;; 1 cycle
        BNZ       ??compartment3_129  ;; 4 cycles
        ; ------------------------------------- Block: 7 cycles
        CMP       N:_obis_code+4, #0x3  ;; 1 cycle
        BNZ       ??compartment3_130  ;; 4 cycles
        ; ------------------------------------- Block: 5 cycles
        CMP       N:_asso2_flag, #0x1  ;; 1 cycle
        BZ        ??compartment3_131  ;; 4 cycles
        ; ------------------------------------- Block: 5 cycles
??compartment3_130:
        CMP       N:_obis_code+4, #0x2  ;; 1 cycle
        BNZ       ??compartment3_132  ;; 4 cycles
        ; ------------------------------------- Block: 5 cycles
        CMP       N:_asso1_flag, #0x1  ;; 1 cycle
        BZ        ??compartment3_131  ;; 4 cycles
        ; ------------------------------------- Block: 5 cycles
??compartment3_132:
        CMP       N:_obis_code+4, #0x1  ;; 1 cycle
        BZ        ??compartment3_131  ;; 4 cycles
        ; ------------------------------------- Block: 5 cycles
        CMP0      N:_obis_code+4     ;; 1 cycle
        BNZ       ??compartment3_129  ;; 4 cycles
        ; ------------------------------------- Block: 5 cycles
//  692         {
//  693           log_name2(info[8], info[9], info[10], info[11], info[12]);
??compartment3_131:
        MOV       A, N:_info+12      ;; 1 cycle
        MOV       E, A               ;; 1 cycle
        MOV       B, N:_info+11      ;; 1 cycle
        MOV       C, N:_info+10      ;; 1 cycle
        MOV       X, N:_info+9       ;; 1 cycle
        MOV       A, N:_info+8       ;; 1 cycle
          CFI FunCall _log_name2
        CALL      _log_name2         ;; 3 cycles
        BR        S:??compartment3_127  ;; 3 cycles
        ; ------------------------------------- Block: 12 cycles
//  694         }
//  695         else if(obis_code[2] != 40)
??compartment3_129:
        CMP       N:_obis_code+2, #0x28  ;; 1 cycle
        BZ        ??compartment3_127  ;; 4 cycles
        ; ------------------------------------- Block: 5 cycles
//  696         {
//  697           log_name2(info[8], info[9], info[10], info[11], info[12]);
        MOV       A, N:_info+12      ;; 1 cycle
        MOV       E, A               ;; 1 cycle
        MOV       B, N:_info+11      ;; 1 cycle
        MOV       C, N:_info+10      ;; 1 cycle
        MOV       X, N:_info+9       ;; 1 cycle
        MOV       A, N:_info+8       ;; 1 cycle
          CFI FunCall _log_name2
        CALL      _log_name2         ;; 3 cycles
//  698         }
//  699         
//  700         break;
        BR        S:??compartment3_127  ;; 3 cycles
        ; ------------------------------------- Block: 12 cycles
//  701       }
//  702     }
??compartment3_128:
        MOVW      AX, [SP+0x0A]      ;; 1 cycle
        ADDW      AX, #0x9           ;; 1 cycle
        MOVW      [SP+0x0A], AX      ;; 1 cycle
        BR        N:??get_resp_14    ;; 3 cycles
        ; ------------------------------------- Block: 6 cycles
//  703     
//  704     if((i_g > (OBJ_LIST[2] * 9)) && (not_found_f == 1))
??compartment3_127:
        MOVW      AX, [SP+0x0A]      ;; 1 cycle
        MOVW      HL, AX             ;; 1 cycle
        MOV       X, N:_OBJ_LIST+2   ;; 1 cycle
        MOV       A, #0x0            ;; 1 cycle
        MOVW      BC, #0x9           ;; 1 cycle
        MULHU                        ;; 2 cycles
        CMPW      AX, HL             ;; 1 cycle
        BNC       ??compartment3_133  ;; 4 cycles
        ; ------------------------------------- Block: 12 cycles
        MOV       A, [SP+0x10]       ;; 1 cycle
        CMP       A, #0x1            ;; 1 cycle
        SKNZ                         ;; 1 cycle
          CFI FunCall _fill_0b
        ; ------------------------------------- Block: 3 cycles
//  705     {
//  706       fill_0b();
        CALL      _fill_0b           ;; 3 cycles
        ; ------------------------------------- Block: 3 cycles
//  707     }
//  708     
//  709     break;
??compartment3_133:
        BR        N:??compartment3_134  ;; 3 cycles
        ; ------------------------------------- Block: 3 cycles
//  710   case 0x0102:
//  711     switch(obis1)
??compartment3_93:
        MOVW      AX, [SP+0x06]      ;; 1 cycle
        MOVW      BC, AX             ;; 1 cycle
        MOVW      AX, [SP+0x04]      ;; 1 cycle
        MOVW      HL, #LWRD(??get_resp_0)  ;; 1 cycle
        MOV       ES, #BYTE3(??get_resp_0)  ;; 1 cycle
        MOV       CS, #BYTE3(_get_resp)  ;; 1 cycle
        BR        N:?L_VSWITCH_L10   ;; 3 cycles
        ; ------------------------------------- Block: 9 cycles
//  712     {
//  713     case 0x00000101:                        /* available billing period */
//  714       if(md_reset_count <= MAX_BILL)
??get_resp_15:
        MOV       A, N:_MAX_BILL     ;; 1 cycle
        CMP       A, N:_md_reset_count  ;; 1 cycle
        BC        ??compartment3_135  ;; 4 cycles
        ; ------------------------------------- Block: 6 cycles
//  715       {
//  716         lu8_i= md_reset_count;
        MOV       A, N:_md_reset_count  ;; 1 cycle
        MOV       [SP], A            ;; 1 cycle
        BR        S:??compartment3_136  ;; 3 cycles
        ; ------------------------------------- Block: 5 cycles
//  717       }
//  718       else
//  719       {
//  720         lu8_i= MAX_BILL;
??compartment3_135:
        MOV       A, N:_MAX_BILL     ;; 1 cycle
        MOV       [SP], A            ;; 1 cycle
        ; ------------------------------------- Block: 2 cycles
//  721       }
//  722       unsigned8(lu8_i);
??compartment3_136:
        MOV       A, [SP]            ;; 1 cycle
          CFI FunCall _unsigned8
        CALL      _unsigned8         ;; 3 cycles
//  723       break;
        BR        N:??compartment3_134  ;; 3 cycles
        ; ------------------------------------- Block: 7 cycles
//  724       
//  725     case 0x002A0000:
//  726       info[k++]=0;
??get_resp_16:
        MOVW      BC, N:_k           ;; 1 cycle
        MOV       A, #0x0            ;; 1 cycle
        MOV       (_info)[BC], A     ;; 1 cycle
        INCW      N:_k               ;; 2 cycles
//  727       logical_device_name(2);
        MOV       A, #0x2            ;; 1 cycle
          CFI FunCall _logical_device_name
        CALL      _logical_device_name  ;; 3 cycles
//  728       break;
        BR        N:??compartment3_134  ;; 3 cycles
        ; ------------------------------------- Block: 12 cycles
//  729       ////////            
//  730     case 0x00600100:
//  731       info[k++]= 0;
??get_resp_17:
        MOVW      BC, N:_k           ;; 1 cycle
        MOV       A, #0x0            ;; 1 cycle
        MOV       (_info)[BC], A     ;; 1 cycle
        INCW      N:_k               ;; 2 cycles
//  732       sr_no_ascii();
          CFI FunCall _sr_no_ascii
        CALL      _sr_no_ascii       ;; 3 cycles
//  733       break;
        BR        N:??compartment3_134  ;; 3 cycles
        ; ------------------------------------- Block: 11 cycles
//  734       
//  735     case 0x01608009:                        /* PCB TRACKING READ CASE */
//  736       eprom_read(TOU_VAR_SAVE,0,PAGE_1,AUTO_CALC);              /* pcb serial no */
??get_resp_18:
        MOV       E, #0x0            ;; 1 cycle
        MOV       B, #0x0            ;; 1 cycle
        MOV       C, #0x0            ;; 1 cycle
        MOVW      AX, #0x7F0         ;; 1 cycle
          CFI FunCall _eprom_read
        CALL      _eprom_read        ;; 3 cycles
//  737       if(opr_data[10] != 0x01)
        CMP       N:_opr_data+10, #0x1  ;; 1 cycle
        BZ        ??compartment3_137  ;; 4 cycles
        ; ------------------------------------- Block: 12 cycles
//  738       {
//  739         val_4byt2(0x00, 0x00, 0x00, 0x00);
        MOV       B, #0x0            ;; 1 cycle
        MOV       C, #0x0            ;; 1 cycle
        MOV       X, #0x0            ;; 1 cycle
        MOV       A, #0x0            ;; 1 cycle
          CFI FunCall _val_4byt2
        CALL      _val_4byt2         ;; 3 cycles
        BR        S:??compartment3_138  ;; 3 cycles
        ; ------------------------------------- Block: 10 cycles
//  740       }
//  741       else
//  742       {
//  743         val_4byt2(opr_data[6], opr_data[7], opr_data[8], opr_data[9]);
??compartment3_137:
        MOV       B, N:_opr_data+9   ;; 1 cycle
        MOV       C, N:_opr_data+8   ;; 1 cycle
        MOV       X, N:_opr_data+7   ;; 1 cycle
        MOV       A, N:_opr_data+6   ;; 1 cycle
          CFI FunCall _val_4byt2
        CALL      _val_4byt2         ;; 3 cycles
        ; ------------------------------------- Block: 7 cycles
//  744       }
//  745       break;
??compartment3_138:
        BR        N:??compartment3_134  ;; 3 cycles
          CFI FunCall _fill_pcb_firm_ver_calib_status
        ; ------------------------------------- Block: 3 cycles
//  746       
//  747     case 0x0160800E:                        /* pcb firmware version and pcb calibration status */
//  748       fill_pcb_firm_ver_calib_status();
??get_resp_19:
        CALL      _fill_pcb_firm_ver_calib_status  ;; 3 cycles
//  749       break;
        BR        N:??compartment3_134  ;; 3 cycles
          CFI FunCall _fill_rtc_calib
        ; ------------------------------------- Block: 6 cycles
//  750       
//  751     case 0x01608011:
//  752       fill_rtc_calib();
??get_resp_20:
        CALL      _fill_rtc_calib    ;; 3 cycles
//  753       break;
        BR        N:??compartment3_134  ;; 3 cycles
          CFI FunCall _fill_utility_id
        ; ------------------------------------- Block: 6 cycles
//  754       
//  755     case 0x01608012:                        /* utility id */
//  756       fill_utility_id();
??get_resp_21:
        CALL      _fill_utility_id   ;; 3 cycles
//  757       break;
        BR        N:??compartment3_134  ;; 3 cycles
        ; ------------------------------------- Block: 6 cycles
//  758       
//  759     case 0x00600700:
//  760       long_int= tpr.power_fail.count;
??get_resp_22:
        MOV       X, N:_tpr+605      ;; 1 cycle
        MOV       A, #0x0            ;; 1 cycle
        MOVW      BC, #0x0           ;; 1 cycle
        MOVW      S:_long_int, AX    ;; 1 cycle
        XCHW      AX, BC             ;; 1 cycle
        MOVW      S:_long_int+2, AX  ;; 1 cycle
        XCHW      AX, BC             ;; 1 cycle
//  761       int_into_char_array(long_int,char_array);
        MOVW      BC, #LWRD(_char_array)  ;; 1 cycle
        MOVW      HL, S:_long_int+2  ;; 1 cycle
        MOVW      DE, S:_long_int    ;; 1 cycle
        MOVW      AX, DE             ;; 1 cycle
          CFI FunCall _int_into_char_array
        CALL      _int_into_char_array  ;; 3 cycles
//  762       val_2byt2(char_array[0], char_array[1]);
        MOV       X, N:_char_array+1  ;; 1 cycle
        MOV       A, N:_char_array   ;; 1 cycle
          CFI FunCall _val_2byt2
        CALL      _val_2byt2         ;; 3 cycles
//  763       break;
        BR        N:??compartment3_134  ;; 3 cycles
        ; ------------------------------------- Block: 22 cycles
//  764       
//  765     case 0x005e5b00:
//  766       val_2byt2(tpr.cum_tpr_count/256, tpr.cum_tpr_count%256);
??get_resp_23:
        MOVW      AX, N:_tpr+30      ;; 1 cycle
        XCH       A, X               ;; 1 cycle
        MOV       B, A               ;; 1 cycle
        XCH       A, X               ;; 1 cycle
        MOVW      AX, N:_tpr+30      ;; 1 cycle
        CLRB      X                  ;; 1 cycle
        XCH       A, X               ;; 1 cycle
        MOV       A, X               ;; 1 cycle
        XCH       A, B               ;; 1 cycle
        MOV       X, A               ;; 1 cycle
        XCH       A, B               ;; 1 cycle
          CFI FunCall _val_2byt2
        CALL      _val_2byt2         ;; 3 cycles
//  767       break;
        BR        N:??compartment3_134  ;; 3 cycles
        ; ------------------------------------- Block: 17 cycles
//  768       
//  769     case 0x00000100:
//  770       val_4byt2(0, 0, 0, md_reset_count);
??get_resp_24:
        MOV       B, N:_md_reset_count  ;; 1 cycle
        MOV       C, #0x0            ;; 1 cycle
        MOV       X, #0x0            ;; 1 cycle
        MOV       A, #0x0            ;; 1 cycle
          CFI FunCall _val_4byt2
        CALL      _val_4byt2         ;; 3 cycles
//  771       break;
        BR        N:??compartment3_134  ;; 3 cycles
        ; ------------------------------------- Block: 10 cycles
//  772       
//  773     case 0x00600200:
//  774       unsigned8(seq_no_transaction);
??get_resp_25:
        MOVW      AX, N:_seq_no_transaction  ;; 1 cycle
        MOV       A, X               ;; 1 cycle
          CFI FunCall _unsigned8
        CALL      _unsigned8         ;; 3 cycles
//  775       break;
        BR        N:??compartment3_134  ;; 3 cycles
        ; ------------------------------------- Block: 8 cycles
//  776       
//  777     case 0x005e5b09:
//  778       unsigned8(4);                       /* Meter_Type=4: for WC  */
??get_resp_26:
        MOV       A, #0x4            ;; 1 cycle
          CFI FunCall _unsigned8
        CALL      _unsigned8         ;; 3 cycles
//  779       break;
        BR        N:??compartment3_134  ;; 3 cycles
        ; ------------------------------------- Block: 7 cycles
//  780       
//  781     case 0x005e5b0b:
//  782       info[k++]= 0x00;
??get_resp_27:
        MOVW      BC, N:_k           ;; 1 cycle
        MOV       A, #0x0            ;; 1 cycle
        MOV       (_info)[BC], A     ;; 1 cycle
        INCW      N:_k               ;; 2 cycles
//  783       fill_meter_category();
          CFI FunCall _fill_meter_category
        CALL      _fill_meter_category  ;; 3 cycles
//  784       break;
        BR        N:??compartment3_134  ;; 3 cycles
        ; ------------------------------------- Block: 11 cycles
//  785       
//  786     case 0x005e5b0c:                        /* Current Rating */
//  787       info[k++]= 0x00;
??get_resp_28:
        MOVW      BC, N:_k           ;; 1 cycle
        MOV       A, #0x0            ;; 1 cycle
        MOV       (_info)[BC], A     ;; 1 cycle
        INCW      N:_k               ;; 2 cycles
//  788       current_rating();
          CFI FunCall _current_rating
        CALL      _current_rating    ;; 3 cycles
//  789       break;
        BR        N:??compartment3_134  ;; 3 cycles
        ; ------------------------------------- Block: 11 cycles
//  790       
//  791     case 0x00600101:
//  792       info[k++]= 0x00;
??get_resp_29:
        MOVW      BC, N:_k           ;; 1 cycle
        MOV       A, #0x0            ;; 1 cycle
        MOV       (_info)[BC], A     ;; 1 cycle
        INCW      N:_k               ;; 2 cycles
//  793       fill_manufacturer_name();
          CFI FunCall _fill_manufacturer_name
        CALL      _fill_manufacturer_name  ;; 3 cycles
//  794       break;
        BR        N:??compartment3_134  ;; 3 cycles
        ; ------------------------------------- Block: 11 cycles
//  795       
//  796     case 0x01000200:
//  797       info[k++]= 0x00;
??get_resp_30:
        MOVW      BC, N:_k           ;; 1 cycle
        MOV       A, #0x0            ;; 1 cycle
        MOV       (_info)[BC], A     ;; 1 cycle
        INCW      N:_k               ;; 2 cycles
//  798       fill_firmware_version();
          CFI FunCall _fill_firmware_version
        CALL      _fill_firmware_version  ;; 3 cycles
//  799       break;
        BR        N:??compartment3_134  ;; 3 cycles
        ; ------------------------------------- Block: 11 cycles
//  800       
//  801     case 0x01000402:
//  802       long_int= CTR;
??get_resp_31:
        MOVW      AX, N:_CTR         ;; 1 cycle
        MOVW      BC, #0x0           ;; 1 cycle
        MOVW      S:_long_int, AX    ;; 1 cycle
        XCHW      AX, BC             ;; 1 cycle
        MOVW      S:_long_int+2, AX  ;; 1 cycle
        XCHW      AX, BC             ;; 1 cycle
//  803       int_into_char_array(long_int,char_array);
        MOVW      BC, #LWRD(_char_array)  ;; 1 cycle
        MOVW      HL, S:_long_int+2  ;; 1 cycle
        MOVW      DE, S:_long_int    ;; 1 cycle
        MOVW      AX, DE             ;; 1 cycle
          CFI FunCall _int_into_char_array
        CALL      _int_into_char_array  ;; 3 cycles
//  804       val_2byt2(char_array[0], char_array[1]);
        MOV       X, N:_char_array+1  ;; 1 cycle
        MOV       A, N:_char_array   ;; 1 cycle
          CFI FunCall _val_2byt2
        CALL      _val_2byt2         ;; 3 cycles
//  805       break;
        BR        N:??compartment3_134  ;; 3 cycles
        ; ------------------------------------- Block: 21 cycles
//  806       
//  807     case 0x01000403:
//  808       long_int= PTR;
??get_resp_32:
        MOVW      AX, N:_PTR         ;; 1 cycle
        MOVW      BC, #0x0           ;; 1 cycle
        MOVW      S:_long_int, AX    ;; 1 cycle
        XCHW      AX, BC             ;; 1 cycle
        MOVW      S:_long_int+2, AX  ;; 1 cycle
        XCHW      AX, BC             ;; 1 cycle
//  809       int_into_char_array(long_int,char_array);
        MOVW      BC, #LWRD(_char_array)  ;; 1 cycle
        MOVW      HL, S:_long_int+2  ;; 1 cycle
        MOVW      DE, S:_long_int    ;; 1 cycle
        MOVW      AX, DE             ;; 1 cycle
          CFI FunCall _int_into_char_array
        CALL      _int_into_char_array  ;; 3 cycles
//  810       val_2byt2(char_array[0], char_array[1]);
        MOV       X, N:_char_array+1  ;; 1 cycle
        MOV       A, N:_char_array   ;; 1 cycle
          CFI FunCall _val_2byt2
        CALL      _val_2byt2         ;; 3 cycles
//  811       break;
        BR        N:??compartment3_134  ;; 3 cycles
        ; ------------------------------------- Block: 21 cycles
//  812       
//  813     case 0x00600104:                        /* year of manufacturing */
//  814       info[k++]=0x00;
??get_resp_33:
        MOVW      BC, N:_k           ;; 1 cycle
        MOV       A, #0x0            ;; 1 cycle
        MOV       (_info)[BC], A     ;; 1 cycle
        INCW      N:_k               ;; 2 cycles
//  815       fill_yr_of_manufacture();
          CFI FunCall _fill_yr_of_manufacture
        CALL      _fill_yr_of_manufacture  ;; 3 cycles
//  816       break;
        BR        N:??compartment3_134  ;; 3 cycles
        ; ------------------------------------- Block: 11 cycles
//  817       
//  818     case 0x01000800:
//  819       if(md_type == 1)
??get_resp_34:
        CMP       N:_md_type, #0x1   ;; 1 cycle
        BNZ       ??compartment3_139  ;; 4 cycles
        ; ------------------------------------- Block: 5 cycles
//  820       {
//  821         temp_arr[0]= (10800 / mdi_sel) / 256;
        MOVW      BC, #0x100         ;; 1 cycle
        PUSH      BC                 ;; 1 cycle
          CFI CFA SP+48
        POP       HL                 ;; 1 cycle
          CFI CFA SP+46
        MOV       C, N:_mdi_sel      ;; 1 cycle
        MOV       B, #0x0            ;; 1 cycle
        MOVW      AX, #0x2A30        ;; 1 cycle
          CFI FunCall ?SI_DIV_L02
        CALL      N:?SI_DIV_L02      ;; 3 cycles
        PUSH      HL                 ;; 1 cycle
          CFI CFA SP+48
        POP       BC                 ;; 1 cycle
          CFI CFA SP+46
          CFI FunCall ?SI_DIV_L02
        CALL      N:?SI_DIV_L02      ;; 3 cycles
        MOV       A, X               ;; 1 cycle
        MOV       [SP+0x0C], A       ;; 1 cycle
//  822         temp_arr[1]= (10800 / mdi_sel) % 256;
        MOVW      BC, #0x100         ;; 1 cycle
        PUSH      BC                 ;; 1 cycle
          CFI CFA SP+48
        POP       HL                 ;; 1 cycle
          CFI CFA SP+46
        MOV       C, N:_mdi_sel      ;; 1 cycle
        MOV       B, #0x0            ;; 1 cycle
        MOVW      AX, #0x2A30        ;; 1 cycle
          CFI FunCall ?SI_DIV_L02
        CALL      N:?SI_DIV_L02      ;; 3 cycles
        PUSH      HL                 ;; 1 cycle
          CFI CFA SP+48
        POP       BC                 ;; 1 cycle
          CFI CFA SP+46
          CFI FunCall ?SI_MOD_L02
        CALL      N:?SI_MOD_L02      ;; 3 cycles
        MOVW      HL, AX             ;; 1 cycle
        MOV       A, L               ;; 1 cycle
        MOV       [SP+0x0D], A       ;; 1 cycle
        BR        S:??compartment3_140  ;; 3 cycles
        ; ------------------------------------- Block: 36 cycles
//  823       }
//  824       else
//  825       {
//  826         temp_arr[0]= (3600 / mdi_sel) / 256;
??compartment3_139:
        MOVW      BC, #0x100         ;; 1 cycle
        PUSH      BC                 ;; 1 cycle
          CFI CFA SP+48
        POP       HL                 ;; 1 cycle
          CFI CFA SP+46
        MOV       C, N:_mdi_sel      ;; 1 cycle
        MOV       B, #0x0            ;; 1 cycle
        MOVW      AX, #0xE10         ;; 1 cycle
          CFI FunCall ?SI_DIV_L02
        CALL      N:?SI_DIV_L02      ;; 3 cycles
        PUSH      HL                 ;; 1 cycle
          CFI CFA SP+48
        POP       BC                 ;; 1 cycle
          CFI CFA SP+46
          CFI FunCall ?SI_DIV_L02
        CALL      N:?SI_DIV_L02      ;; 3 cycles
        MOV       A, X               ;; 1 cycle
        MOV       [SP+0x0C], A       ;; 1 cycle
//  827         temp_arr[1]= (3600 / mdi_sel) % 256;
        MOVW      BC, #0x100         ;; 1 cycle
        PUSH      BC                 ;; 1 cycle
          CFI CFA SP+48
        POP       HL                 ;; 1 cycle
          CFI CFA SP+46
        MOV       C, N:_mdi_sel      ;; 1 cycle
        MOV       B, #0x0            ;; 1 cycle
        MOVW      AX, #0xE10         ;; 1 cycle
          CFI FunCall ?SI_DIV_L02
        CALL      N:?SI_DIV_L02      ;; 3 cycles
        PUSH      HL                 ;; 1 cycle
          CFI CFA SP+48
        POP       BC                 ;; 1 cycle
          CFI CFA SP+46
          CFI FunCall ?SI_MOD_L02
        CALL      N:?SI_MOD_L02      ;; 3 cycles
        MOVW      HL, AX             ;; 1 cycle
        MOV       A, L               ;; 1 cycle
        MOV       [SP+0x0D], A       ;; 1 cycle
        ; ------------------------------------- Block: 33 cycles
//  828       }
//  829       val_2byt2(temp_arr[0],temp_arr[1]);
??compartment3_140:
        MOV       A, [SP+0x0D]       ;; 1 cycle
        MOV       X, A               ;; 1 cycle
        MOV       A, [SP+0x0C]       ;; 1 cycle
          CFI FunCall _val_2byt2
        CALL      _val_2byt2         ;; 3 cycles
//  830       break;
        BR        N:??compartment3_134  ;; 3 cycles
        ; ------------------------------------- Block: 9 cycles
//  831       
//  832     case 0x01000804:
//  833       val_2byt2(((3600 / mdi_sel_ls) / 256),((3600 / mdi_sel_ls) % 256));
??get_resp_35:
        MOVW      BC, #0x100         ;; 1 cycle
        PUSH      BC                 ;; 1 cycle
          CFI CFA SP+48
        POP       HL                 ;; 1 cycle
          CFI CFA SP+46
        MOV       C, N:_mdi_sel_ls   ;; 1 cycle
        MOV       B, #0x0            ;; 1 cycle
        MOVW      AX, #0xE10         ;; 1 cycle
          CFI FunCall ?SI_DIV_L02
        CALL      N:?SI_DIV_L02      ;; 3 cycles
        PUSH      HL                 ;; 1 cycle
          CFI CFA SP+48
        POP       BC                 ;; 1 cycle
          CFI CFA SP+46
          CFI FunCall ?SI_MOD_L02
        CALL      N:?SI_MOD_L02      ;; 3 cycles
        MOVW      HL, AX             ;; 1 cycle
        XCH       A, L               ;; 1 cycle
        MOV       X, A               ;; 1 cycle
        XCH       A, L               ;; 1 cycle
        XCH       A, X               ;; 1 cycle
        MOV       D, A               ;; 1 cycle
        XCH       A, X               ;; 1 cycle
        MOVW      BC, #0x100         ;; 1 cycle
        PUSH      BC                 ;; 1 cycle
          CFI CFA SP+48
        POP       HL                 ;; 1 cycle
          CFI CFA SP+46
        MOV       C, N:_mdi_sel_ls   ;; 1 cycle
        MOV       B, #0x0            ;; 1 cycle
        MOVW      AX, #0xE10         ;; 1 cycle
          CFI FunCall ?SI_DIV_L02
        CALL      N:?SI_DIV_L02      ;; 3 cycles
        PUSH      HL                 ;; 1 cycle
          CFI CFA SP+48
        POP       BC                 ;; 1 cycle
          CFI CFA SP+46
          CFI FunCall ?SI_DIV_L02
        CALL      N:?SI_DIV_L02      ;; 3 cycles
        MOV       A, X               ;; 1 cycle
        XCH       A, D               ;; 1 cycle
        MOV       X, A               ;; 1 cycle
        XCH       A, D               ;; 1 cycle
          CFI FunCall _val_2byt2
        CALL      _val_2byt2         ;; 3 cycles
//  834       break;
        BR        S:??compartment3_141  ;; 3 cycles
        ; ------------------------------------- Block: 45 cycles
//  835       
//  836     case 0x00600B00:
//  837       val_2byt2(0, tpr.vol_related_last);
??get_resp_36:
        MOV       X, N:_tpr+3        ;; 1 cycle
        MOV       A, #0x0            ;; 1 cycle
          CFI FunCall _val_2byt2
        CALL      _val_2byt2         ;; 3 cycles
//  838       break;
        BR        S:??compartment3_141  ;; 3 cycles
        ; ------------------------------------- Block: 8 cycles
//  839       
//  840     case 0x00600B01:
//  841       val_2byt2(0, tpr.current_related_last);
??get_resp_37:
        MOV       X, N:_tpr+7        ;; 1 cycle
        MOV       A, #0x0            ;; 1 cycle
          CFI FunCall _val_2byt2
        CALL      _val_2byt2         ;; 3 cycles
//  842       break;
        BR        S:??compartment3_141  ;; 3 cycles
        ; ------------------------------------- Block: 8 cycles
//  843       
//  844     case 0x00600B02:
//  845       val_2byt2(0, tpr.power_last);
??get_resp_38:
        MOV       X, N:_tpr+11       ;; 1 cycle
        MOV       A, #0x0            ;; 1 cycle
          CFI FunCall _val_2byt2
        CALL      _val_2byt2         ;; 3 cycles
//  846       break;
        BR        S:??compartment3_141  ;; 3 cycles
        ; ------------------------------------- Block: 8 cycles
//  847       
//  848     case 0x00600B03:
//  849       val_2byt2(0, tpr.transaction_last);
??get_resp_39:
        MOV       X, N:_tpr+15       ;; 1 cycle
        MOV       A, #0x0            ;; 1 cycle
          CFI FunCall _val_2byt2
        CALL      _val_2byt2         ;; 3 cycles
//  850       break;
        BR        S:??compartment3_141  ;; 3 cycles
        ; ------------------------------------- Block: 8 cycles
//  851       
//  852     case 0x00600B04:
//  853       val_2byt2(0, tpr.others_last);
??get_resp_40:
        MOV       X, N:_tpr+19       ;; 1 cycle
        MOV       A, #0x0            ;; 1 cycle
          CFI FunCall _val_2byt2
        CALL      _val_2byt2         ;; 3 cycles
//  854       break;
        BR        S:??compartment3_141  ;; 3 cycles
        ; ------------------------------------- Block: 8 cycles
//  855       
//  856     case 0x00600B05:
//  857       val_2byt2(0, tpr.non_roll_last);
??get_resp_41:
        MOV       X, N:_tpr+23       ;; 1 cycle
        MOV       A, #0x0            ;; 1 cycle
          CFI FunCall _val_2byt2
        CALL      _val_2byt2         ;; 3 cycles
//  858       break;
        BR        S:??compartment3_141  ;; 3 cycles
        ; ------------------------------------- Block: 8 cycles
//  859       
//  860     case 0x00600B63:
//  861       val_2byt2(0, tpr.debug_last);
??get_resp_42:
        MOVW      AX, N:_tpr+28      ;; 1 cycle
        MOV       A, #0x0            ;; 1 cycle
          CFI FunCall _val_2byt2
        CALL      _val_2byt2         ;; 3 cycles
//  862       break;    
        BR        S:??compartment3_141  ;; 3 cycles
          CFI FunCall _fill_0b
        ; ------------------------------------- Block: 8 cycles
//  863     default:
//  864       fill_0b();
??get_resp_43:
        CALL      _fill_0b           ;; 3 cycles
//  865       break;
        ; ------------------------------------- Block: 3 cycles
//  866     }
//  867     break;
??compartment3_141:
        BR        N:??compartment3_134  ;; 3 cycles
        ; ------------------------------------- Block: 3 cycles
//  868     
//  869   case 0x0302:
//  870     switch(obis1)
??compartment3_94:
        MOVW      AX, [SP+0x06]      ;; 1 cycle
        MOVW      BC, AX             ;; 1 cycle
        MOVW      AX, [SP+0x04]      ;; 1 cycle
        MOVW      HL, #LWRD(??get_resp_1)  ;; 1 cycle
        MOV       ES, #BYTE3(??get_resp_1)  ;; 1 cycle
        MOV       CS, #BYTE3(_get_resp)  ;; 1 cycle
        BR        N:?L_VSWITCH_L10   ;; 3 cycles
        ; ------------------------------------- Block: 9 cycles
//  871     {
//  872     case 0x00000102:                        /* bill date */
//  873       info[k++]= 0x00;
??get_resp_44:
        MOVW      BC, N:_k           ;; 1 cycle
        MOV       A, #0x0            ;; 1 cycle
        MOV       (_info)[BC], A     ;; 1 cycle
        INCW      N:_k               ;; 2 cycles
//  874       fill_oprzero(16);
        MOV       A, #0x10           ;; 1 cycle
          CFI FunCall _fill_oprzero
        CALL      _fill_oprzero      ;; 3 cycles
//  875       if(bill_count != 0)
        CMP0      N:_bill_count      ;; 1 cycle
        BZ        ??compartment3_142  ;; 4 cycles
        ; ------------------------------------- Block: 14 cycles
//  876       {
//  877         address= BILL_START_ADD + (bill_count - 1) * BILL_JUMP_PG;
        MOV       X, N:_bill_count   ;; 1 cycle
        MOV       A, #0x0            ;; 1 cycle
        MOVW      BC, #0xA0          ;; 1 cycle
        MULHU                        ;; 2 cycles
        ADDW      AX, #0x1760        ;; 1 cycle
        MOVW      [SP+0x18], AX      ;; 1 cycle
//  878         eprom_read(address,0,PAGE_5,AUTO_CALC);      //page1-5 read
        MOV       E, #0x0            ;; 1 cycle
        MOV       B, #0x4            ;; 1 cycle
        MOV       C, #0x0            ;; 1 cycle
        MOVW      AX, [SP+0x18]      ;; 1 cycle
          CFI FunCall _eprom_read
        CALL      _eprom_read        ;; 3 cycles
        ; ------------------------------------- Block: 14 cycles
//  879       }
//  880       TempTime = char_array_into_time4(&opr_data[0]);
??compartment3_142:
        MOVW      BC, #LWRD(_opr_data)  ;; 1 cycle
        MOVW      AX, SP             ;; 1 cycle
        ADDW      AX, #0x1A          ;; 1 cycle
          CFI FunCall _char_array_into_time4
        CALL      _char_array_into_time4  ;; 3 cycles
        MOVW      HL, #LWRD(_TempTime)  ;; 1 cycle
        MOVW      AX, SP             ;; 1 cycle
        ADDW      AX, #0x1A          ;; 1 cycle
        MOVW      DE, AX             ;; 1 cycle
        MOV       A, [DE]            ;; 1 cycle
        MOV       [HL], A            ;; 1 cycle
        MOV       A, [DE+0x01]       ;; 1 cycle
        MOV       [HL+0x01], A       ;; 1 cycle
        MOV       A, [DE+0x02]       ;; 1 cycle
        MOV       [HL+0x02], A       ;; 1 cycle
        MOV       A, [DE+0x03]       ;; 1 cycle
        MOV       [HL+0x03], A       ;; 1 cycle
        MOV       A, [DE+0x04]       ;; 1 cycle
        MOV       [HL+0x04], A       ;; 1 cycle
        MOV       A, [DE+0x05]       ;; 1 cycle
        MOV       [HL+0x05], A       ;; 1 cycle
        MOV       A, [DE+0x06]       ;; 1 cycle
        MOV       [HL+0x06], A       ;; 1 cycle
//  881       date_time(TempTime.day,TempTime.month,TempTime.year,TempTime.hour,TempTime.min,TempTime.sec,0); //Billing Date
        MOV       X, #0x0            ;; 1 cycle
        PUSH      AX                 ;; 1 cycle
          CFI CFA SP+48
        MOV       A, N:_TempTime     ;; 1 cycle
        MOV       D, A               ;; 1 cycle
        MOV       A, N:_TempTime+1   ;; 1 cycle
        MOV       E, A               ;; 1 cycle
        MOV       B, N:_TempTime+2   ;; 1 cycle
        MOV       C, N:_TempTime+6   ;; 1 cycle
        MOV       X, N:_TempTime+5   ;; 1 cycle
        MOV       A, N:_TempTime+3   ;; 1 cycle
          CFI FunCall _date_time
        CALL      _date_time         ;; 3 cycles
//  882       
//  883       break;
        ADDW      SP, #0x2           ;; 1 cycle
          CFI CFA SP+46
        BR        N:??compartment3_134  ;; 3 cycles
        ; ------------------------------------- Block: 41 cycles
//  884       
//  885     case 0x011f0700:
//  886       long_int= curr.Rph.rms_signed;
??get_resp_45:
        MOVW      BC, N:_curr+14     ;; 1 cycle
        MOVW      AX, N:_curr+12     ;; 1 cycle
        MOVW      S:_long_int, AX    ;; 1 cycle
        XCHW      AX, BC             ;; 1 cycle
        MOVW      S:_long_int+2, AX  ;; 1 cycle
        XCHW      AX, BC             ;; 1 cycle
//  887       long_into_char_array4(long_int,char_array);
        MOVW      DE, #LWRD(_char_array)  ;; 1 cycle
        MOVW      BC, S:_long_int+2  ;; 1 cycle
        MOVW      AX, S:_long_int    ;; 1 cycle
          CFI FunCall _long_into_char_array4
        CALL      _long_into_char_array4  ;; 3 cycles
//  888       val_signed_4byt2(char_array[0],char_array[1],char_array[2],char_array[3]);
        MOV       B, N:_char_array+3  ;; 1 cycle
        MOV       C, N:_char_array+2  ;; 1 cycle
        MOV       X, N:_char_array+1  ;; 1 cycle
        MOV       A, N:_char_array   ;; 1 cycle
          CFI FunCall _val_signed_4byt2
        CALL      _val_signed_4byt2  ;; 3 cycles
//  889       break;
        BR        N:??compartment3_134  ;; 3 cycles
        ; ------------------------------------- Block: 22 cycles
//  890       
//  891     case 0x01330700:
//  892       long_int= curr.Yph.rms_signed;
??get_resp_46:
        MOVW      BC, N:_curr+30     ;; 1 cycle
        MOVW      AX, N:_curr+28     ;; 1 cycle
        MOVW      S:_long_int, AX    ;; 1 cycle
        XCHW      AX, BC             ;; 1 cycle
        MOVW      S:_long_int+2, AX  ;; 1 cycle
        XCHW      AX, BC             ;; 1 cycle
//  893       long_into_char_array4(long_int,char_array);
        MOVW      DE, #LWRD(_char_array)  ;; 1 cycle
        MOVW      BC, S:_long_int+2  ;; 1 cycle
        MOVW      AX, S:_long_int    ;; 1 cycle
          CFI FunCall _long_into_char_array4
        CALL      _long_into_char_array4  ;; 3 cycles
//  894       val_signed_4byt2(char_array[0],char_array[1],char_array[2],char_array[3]);
        MOV       B, N:_char_array+3  ;; 1 cycle
        MOV       C, N:_char_array+2  ;; 1 cycle
        MOV       X, N:_char_array+1  ;; 1 cycle
        MOV       A, N:_char_array   ;; 1 cycle
          CFI FunCall _val_signed_4byt2
        CALL      _val_signed_4byt2  ;; 3 cycles
//  895       break;
        BR        N:??compartment3_134  ;; 3 cycles
        ; ------------------------------------- Block: 22 cycles
//  896       
//  897     case 0x01470700:
//  898       long_int= curr.Bph.rms_signed;
??get_resp_47:
        MOVW      BC, N:_curr+46     ;; 1 cycle
        MOVW      AX, N:_curr+44     ;; 1 cycle
        MOVW      S:_long_int, AX    ;; 1 cycle
        XCHW      AX, BC             ;; 1 cycle
        MOVW      S:_long_int+2, AX  ;; 1 cycle
        XCHW      AX, BC             ;; 1 cycle
//  899       long_into_char_array4(long_int,char_array);
        MOVW      DE, #LWRD(_char_array)  ;; 1 cycle
        MOVW      BC, S:_long_int+2  ;; 1 cycle
        MOVW      AX, S:_long_int    ;; 1 cycle
          CFI FunCall _long_into_char_array4
        CALL      _long_into_char_array4  ;; 3 cycles
//  900       val_signed_4byt2(char_array[0],char_array[1],char_array[2],char_array[3]);
        MOV       B, N:_char_array+3  ;; 1 cycle
        MOV       C, N:_char_array+2  ;; 1 cycle
        MOV       X, N:_char_array+1  ;; 1 cycle
        MOV       A, N:_char_array   ;; 1 cycle
          CFI FunCall _val_signed_4byt2
        CALL      _val_signed_4byt2  ;; 3 cycles
//  901       break;
        BR        N:??compartment3_134  ;; 3 cycles
        ; ------------------------------------- Block: 22 cycles
//  902       
//  903     case 0x015b0700:
//  904       long_int= curr.Nph.rms;
??get_resp_48:
        MOVW      BC, N:_curr+50     ;; 1 cycle
        MOVW      AX, N:_curr+48     ;; 1 cycle
        MOVW      S:_long_int, AX    ;; 1 cycle
        XCHW      AX, BC             ;; 1 cycle
        MOVW      S:_long_int+2, AX  ;; 1 cycle
        XCHW      AX, BC             ;; 1 cycle
//  905       long_into_char_array4(long_int,char_array);
        MOVW      DE, #LWRD(_char_array)  ;; 1 cycle
        MOVW      BC, S:_long_int+2  ;; 1 cycle
        MOVW      AX, S:_long_int    ;; 1 cycle
          CFI FunCall _long_into_char_array4
        CALL      _long_into_char_array4  ;; 3 cycles
//  906       val_signed_4byt2(char_array[0],char_array[1],char_array[2],char_array[3]);
        MOV       B, N:_char_array+3  ;; 1 cycle
        MOV       C, N:_char_array+2  ;; 1 cycle
        MOV       X, N:_char_array+1  ;; 1 cycle
        MOV       A, N:_char_array   ;; 1 cycle
          CFI FunCall _val_signed_4byt2
        CALL      _val_signed_4byt2  ;; 3 cycles
//  907       break;
        BR        N:??compartment3_134  ;; 3 cycles
        ; ------------------------------------- Block: 22 cycles
//  908       
//  909     case 0x01200700:
//  910       long_int= vol.Rph.rms;
??get_resp_49:
        MOVW      AX, N:_vol         ;; 1 cycle
        MOVW      BC, #0x0           ;; 1 cycle
        MOVW      S:_long_int, AX    ;; 1 cycle
        XCHW      AX, BC             ;; 1 cycle
        MOVW      S:_long_int+2, AX  ;; 1 cycle
        XCHW      AX, BC             ;; 1 cycle
//  911       int_into_char_array(long_int,char_array);
        MOVW      BC, #LWRD(_char_array)  ;; 1 cycle
        MOVW      HL, S:_long_int+2  ;; 1 cycle
        MOVW      DE, S:_long_int    ;; 1 cycle
        MOVW      AX, DE             ;; 1 cycle
          CFI FunCall _int_into_char_array
        CALL      _int_into_char_array  ;; 3 cycles
//  912       val_2byt2(char_array[0], char_array[1]);
        MOV       X, N:_char_array+1  ;; 1 cycle
        MOV       A, N:_char_array   ;; 1 cycle
          CFI FunCall _val_2byt2
        CALL      _val_2byt2         ;; 3 cycles
//  913       break;
        BR        N:??compartment3_134  ;; 3 cycles
        ; ------------------------------------- Block: 21 cycles
//  914       
//  915     case 0x01340700:
//  916       long_int= vol.Yph.rms;
??get_resp_50:
        MOVW      AX, N:_vol+6       ;; 1 cycle
        MOVW      BC, #0x0           ;; 1 cycle
        MOVW      S:_long_int, AX    ;; 1 cycle
        XCHW      AX, BC             ;; 1 cycle
        MOVW      S:_long_int+2, AX  ;; 1 cycle
        XCHW      AX, BC             ;; 1 cycle
//  917       int_into_char_array(long_int,char_array);
        MOVW      BC, #LWRD(_char_array)  ;; 1 cycle
        MOVW      HL, S:_long_int+2  ;; 1 cycle
        MOVW      DE, S:_long_int    ;; 1 cycle
        MOVW      AX, DE             ;; 1 cycle
          CFI FunCall _int_into_char_array
        CALL      _int_into_char_array  ;; 3 cycles
//  918       val_2byt2(char_array[0], char_array[1]);
        MOV       X, N:_char_array+1  ;; 1 cycle
        MOV       A, N:_char_array   ;; 1 cycle
          CFI FunCall _val_2byt2
        CALL      _val_2byt2         ;; 3 cycles
//  919       break;
        BR        N:??compartment3_134  ;; 3 cycles
        ; ------------------------------------- Block: 21 cycles
//  920       
//  921     case 0x01480700:
//  922       long_int= vol.Bph.rms;
??get_resp_51:
        MOVW      AX, N:_vol+12      ;; 1 cycle
        MOVW      BC, #0x0           ;; 1 cycle
        MOVW      S:_long_int, AX    ;; 1 cycle
        XCHW      AX, BC             ;; 1 cycle
        MOVW      S:_long_int+2, AX  ;; 1 cycle
        XCHW      AX, BC             ;; 1 cycle
//  923       int_into_char_array(long_int,char_array);
        MOVW      BC, #LWRD(_char_array)  ;; 1 cycle
        MOVW      HL, S:_long_int+2  ;; 1 cycle
        MOVW      DE, S:_long_int    ;; 1 cycle
        MOVW      AX, DE             ;; 1 cycle
          CFI FunCall _int_into_char_array
        CALL      _int_into_char_array  ;; 3 cycles
//  924       val_2byt2(char_array[0], char_array[1]);
        MOV       X, N:_char_array+1  ;; 1 cycle
        MOV       A, N:_char_array   ;; 1 cycle
          CFI FunCall _val_2byt2
        CALL      _val_2byt2         ;; 3 cycles
//  925       break;
        BR        N:??compartment3_134  ;; 3 cycles
        ; ------------------------------------- Block: 21 cycles
//  926       
//  927     case 0x017C0700:
//  928       long_int= ph_ph.Ph_RY.vol.value;
??get_resp_52:
        MOVW      AX, N:_ph_ph       ;; 1 cycle
        MOVW      BC, #0x0           ;; 1 cycle
        MOVW      S:_long_int, AX    ;; 1 cycle
        XCHW      AX, BC             ;; 1 cycle
        MOVW      S:_long_int+2, AX  ;; 1 cycle
        XCHW      AX, BC             ;; 1 cycle
//  929       int_into_char_array(long_int,char_array);
        MOVW      BC, #LWRD(_char_array)  ;; 1 cycle
        MOVW      HL, S:_long_int+2  ;; 1 cycle
        MOVW      DE, S:_long_int    ;; 1 cycle
        MOVW      AX, DE             ;; 1 cycle
          CFI FunCall _int_into_char_array
        CALL      _int_into_char_array  ;; 3 cycles
//  930       val_2byt2(char_array[0], char_array[1]);
        MOV       X, N:_char_array+1  ;; 1 cycle
        MOV       A, N:_char_array   ;; 1 cycle
          CFI FunCall _val_2byt2
        CALL      _val_2byt2         ;; 3 cycles
//  931       break;
        BR        N:??compartment3_134  ;; 3 cycles
        ; ------------------------------------- Block: 21 cycles
//  932       
//  933     case 0x017D0700:
//  934       long_int= ph_ph.Ph_YB.vol.value;
??get_resp_53:
        MOVW      AX, N:_ph_ph+8     ;; 1 cycle
        MOVW      BC, #0x0           ;; 1 cycle
        MOVW      S:_long_int, AX    ;; 1 cycle
        XCHW      AX, BC             ;; 1 cycle
        MOVW      S:_long_int+2, AX  ;; 1 cycle
        XCHW      AX, BC             ;; 1 cycle
//  935       int_into_char_array(long_int,char_array);
        MOVW      BC, #LWRD(_char_array)  ;; 1 cycle
        MOVW      HL, S:_long_int+2  ;; 1 cycle
        MOVW      DE, S:_long_int    ;; 1 cycle
        MOVW      AX, DE             ;; 1 cycle
          CFI FunCall _int_into_char_array
        CALL      _int_into_char_array  ;; 3 cycles
//  936       val_2byt2(char_array[0], char_array[1]);
        MOV       X, N:_char_array+1  ;; 1 cycle
        MOV       A, N:_char_array   ;; 1 cycle
          CFI FunCall _val_2byt2
        CALL      _val_2byt2         ;; 3 cycles
//  937       break;
        BR        N:??compartment3_134  ;; 3 cycles
        ; ------------------------------------- Block: 21 cycles
//  938       
//  939     case 0x017E0700:
//  940       long_int= ph_ph.Ph_BR.vol.value;
??get_resp_54:
        MOVW      AX, N:_ph_ph+16    ;; 1 cycle
        MOVW      BC, #0x0           ;; 1 cycle
        MOVW      S:_long_int, AX    ;; 1 cycle
        XCHW      AX, BC             ;; 1 cycle
        MOVW      S:_long_int+2, AX  ;; 1 cycle
        XCHW      AX, BC             ;; 1 cycle
//  941       int_into_char_array(long_int,char_array);
        MOVW      BC, #LWRD(_char_array)  ;; 1 cycle
        MOVW      HL, S:_long_int+2  ;; 1 cycle
        MOVW      DE, S:_long_int    ;; 1 cycle
        MOVW      AX, DE             ;; 1 cycle
          CFI FunCall _int_into_char_array
        CALL      _int_into_char_array  ;; 3 cycles
//  942       val_2byt2(char_array[0], char_array[1]);
        MOV       X, N:_char_array+1  ;; 1 cycle
        MOV       A, N:_char_array   ;; 1 cycle
          CFI FunCall _val_2byt2
        CALL      _val_2byt2         ;; 3 cycles
//  943       break;
        BR        N:??compartment3_134  ;; 3 cycles
        ; ------------------------------------- Block: 21 cycles
//  944       
//  945     case 0x010D0700:
//  946       info[k++]= 0x00;
??get_resp_55:
        MOVW      BC, N:_k           ;; 1 cycle
        MOV       A, #0x0            ;; 1 cycle
        MOV       (_info)[BC], A     ;; 1 cycle
        INCW      N:_k               ;; 2 cycles
//  947       if(METERING_MODE == NET)
        CMP       N:_METERING_MODE, #0x1  ;; 1 cycle
        BNZ       ??compartment3_143  ;; 4 cycles
        ; ------------------------------------- Block: 10 cycles
//  948       {
//  949         if(quadrant.Allph == Q2 || quadrant.Allph == Q3)
        CMP       N:_quadrant+3, #0x2  ;; 1 cycle
        BZ        ??compartment3_144  ;; 4 cycles
        ; ------------------------------------- Block: 5 cycles
        CMP       N:_quadrant+3, #0x3  ;; 1 cycle
        BNZ       ??compartment3_145  ;; 4 cycles
        ; ------------------------------------- Block: 5 cycles
//  950         {
//  951           signed_integer(-pf.Net_signed);
??compartment3_144:
        MOVW      AX, N:_pf+14       ;; 1 cycle
        XOR       A, #0xFF           ;; 1 cycle
        XCH       A, X               ;; 1 cycle
        XOR       A, #0xFF           ;; 1 cycle
        XCH       A, X               ;; 1 cycle
        INCW      AX                 ;; 1 cycle
          CFI FunCall _signed_integer
        CALL      _signed_integer    ;; 3 cycles
        BR        S:??compartment3_146  ;; 3 cycles
        ; ------------------------------------- Block: 12 cycles
//  952         }
//  953         else
//  954         {
//  955           signed_integer(pf.Net_signed);
??compartment3_145:
        MOVW      AX, N:_pf+14       ;; 1 cycle
          CFI FunCall _signed_integer
        CALL      _signed_integer    ;; 3 cycles
        BR        S:??compartment3_146  ;; 3 cycles
        ; ------------------------------------- Block: 7 cycles
//  956         }
//  957       }
//  958       else
//  959       {
//  960         if(quadrant.Allph == Q2 || quadrant.Allph == Q4)
??compartment3_143:
        CMP       N:_quadrant+3, #0x2  ;; 1 cycle
        BZ        ??compartment3_147  ;; 4 cycles
        ; ------------------------------------- Block: 5 cycles
        CMP       N:_quadrant+3, #0x4  ;; 1 cycle
        BNZ       ??compartment3_148  ;; 4 cycles
        ; ------------------------------------- Block: 5 cycles
//  961         {
//  962           signed_integer(-pf.Net_signed);
??compartment3_147:
        MOVW      AX, N:_pf+14       ;; 1 cycle
        XOR       A, #0xFF           ;; 1 cycle
        XCH       A, X               ;; 1 cycle
        XOR       A, #0xFF           ;; 1 cycle
        XCH       A, X               ;; 1 cycle
        INCW      AX                 ;; 1 cycle
          CFI FunCall _signed_integer
        CALL      _signed_integer    ;; 3 cycles
        BR        S:??compartment3_146  ;; 3 cycles
        ; ------------------------------------- Block: 12 cycles
//  963         }
//  964         else
//  965         {
//  966           signed_integer(pf.Net_signed);
??compartment3_148:
        MOVW      AX, N:_pf+14       ;; 1 cycle
          CFI FunCall _signed_integer
        CALL      _signed_integer    ;; 3 cycles
        ; ------------------------------------- Block: 4 cycles
//  967         }
//  968       }
//  969       break;
??compartment3_146:
        BR        N:??compartment3_134  ;; 3 cycles
        ; ------------------------------------- Block: 3 cycles
//  970       
//  971     case 0x01210700:
//  972       info[k++]= 0x00;
??get_resp_56:
        MOVW      BC, N:_k           ;; 1 cycle
        MOV       A, #0x0            ;; 1 cycle
        MOV       (_info)[BC], A     ;; 1 cycle
        INCW      N:_k               ;; 2 cycles
//  973       signed_integer(pf.Rph_signed);
        MOVW      AX, N:_pf+8        ;; 1 cycle
          CFI FunCall _signed_integer
        CALL      _signed_integer    ;; 3 cycles
//  974       break;
        BR        N:??compartment3_134  ;; 3 cycles
        ; ------------------------------------- Block: 12 cycles
//  975       
//  976     case 0x01350700:
//  977       info[k++]= 0x00;
??get_resp_57:
        MOVW      BC, N:_k           ;; 1 cycle
        MOV       A, #0x0            ;; 1 cycle
        MOV       (_info)[BC], A     ;; 1 cycle
        INCW      N:_k               ;; 2 cycles
//  978       signed_integer(pf.Yph_signed);
        MOVW      AX, N:_pf+10       ;; 1 cycle
          CFI FunCall _signed_integer
        CALL      _signed_integer    ;; 3 cycles
//  979       break;
        BR        N:??compartment3_134  ;; 3 cycles
        ; ------------------------------------- Block: 12 cycles
//  980       
//  981     case 0x01490700:
//  982       info[k++]= 0x00;
??get_resp_58:
        MOVW      BC, N:_k           ;; 1 cycle
        MOV       A, #0x0            ;; 1 cycle
        MOV       (_info)[BC], A     ;; 1 cycle
        INCW      N:_k               ;; 2 cycles
//  983       signed_integer(pf.Bph_signed);
        MOVW      AX, N:_pf+12       ;; 1 cycle
          CFI FunCall _signed_integer
        CALL      _signed_integer    ;; 3 cycles
//  984       break;
        BR        N:??compartment3_134  ;; 3 cycles
        ; ------------------------------------- Block: 12 cycles
//  985       
//  986     case 0x010E0700:
//  987       val_2byt2(freq.Net / 256, freq.Net % 256);
??get_resp_59:
        MOVW      AX, N:_freq+6      ;; 1 cycle
        XCH       A, X               ;; 1 cycle
        MOV       B, A               ;; 1 cycle
        XCH       A, X               ;; 1 cycle
        MOVW      AX, N:_freq+6      ;; 1 cycle
        CLRB      X                  ;; 1 cycle
        XCH       A, X               ;; 1 cycle
        MOV       A, X               ;; 1 cycle
        XCH       A, B               ;; 1 cycle
        MOV       X, A               ;; 1 cycle
        XCH       A, B               ;; 1 cycle
          CFI FunCall _val_2byt2
        CALL      _val_2byt2         ;; 3 cycles
//  988       break;
        BR        N:??compartment3_134  ;; 3 cycles
        ; ------------------------------------- Block: 17 cycles
//  989       
//  990     case 0x01220700:
//  991       val_2byt2(freq.Rph / 256, freq.Rph % 256);
??get_resp_60:
        MOVW      AX, N:_freq        ;; 1 cycle
        XCH       A, X               ;; 1 cycle
        MOV       B, A               ;; 1 cycle
        XCH       A, X               ;; 1 cycle
        MOVW      AX, N:_freq        ;; 1 cycle
        CLRB      X                  ;; 1 cycle
        XCH       A, X               ;; 1 cycle
        MOV       A, X               ;; 1 cycle
        XCH       A, B               ;; 1 cycle
        MOV       X, A               ;; 1 cycle
        XCH       A, B               ;; 1 cycle
          CFI FunCall _val_2byt2
        CALL      _val_2byt2         ;; 3 cycles
//  992       break;
        BR        N:??compartment3_134  ;; 3 cycles
        ; ------------------------------------- Block: 17 cycles
//  993       
//  994     case 0x01360700:
//  995       val_2byt2(freq.Yph / 256, freq.Yph % 256);
??get_resp_61:
        MOVW      AX, N:_freq+2      ;; 1 cycle
        XCH       A, X               ;; 1 cycle
        MOV       B, A               ;; 1 cycle
        XCH       A, X               ;; 1 cycle
        MOVW      AX, N:_freq+2      ;; 1 cycle
        CLRB      X                  ;; 1 cycle
        XCH       A, X               ;; 1 cycle
        MOV       A, X               ;; 1 cycle
        XCH       A, B               ;; 1 cycle
        MOV       X, A               ;; 1 cycle
        XCH       A, B               ;; 1 cycle
          CFI FunCall _val_2byt2
        CALL      _val_2byt2         ;; 3 cycles
//  996       break;
        BR        N:??compartment3_134  ;; 3 cycles
        ; ------------------------------------- Block: 17 cycles
//  997       
//  998     case 0x014A0700:
//  999       val_2byt2(freq.Bph / 256, freq.Bph % 256);
??get_resp_62:
        MOVW      AX, N:_freq+4      ;; 1 cycle
        XCH       A, X               ;; 1 cycle
        MOV       B, A               ;; 1 cycle
        XCH       A, X               ;; 1 cycle
        MOVW      AX, N:_freq+4      ;; 1 cycle
        CLRB      X                  ;; 1 cycle
        XCH       A, X               ;; 1 cycle
        MOV       A, X               ;; 1 cycle
        XCH       A, B               ;; 1 cycle
        MOV       X, A               ;; 1 cycle
        XCH       A, B               ;; 1 cycle
          CFI FunCall _val_2byt2
        CALL      _val_2byt2         ;; 3 cycles
// 1000       break;
        BR        N:??compartment3_134  ;; 3 cycles
        ; ------------------------------------- Block: 17 cycles
// 1001       
// 1002     case 0x01010700:
// 1003       long_int= power.Allph.active_signed;                 
??get_resp_63:
        MOVW      BC, N:_power+82    ;; 1 cycle
        MOVW      AX, N:_power+80    ;; 1 cycle
        MOVW      S:_long_int, AX    ;; 1 cycle
        XCHW      AX, BC             ;; 1 cycle
        MOVW      S:_long_int+2, AX  ;; 1 cycle
        XCHW      AX, BC             ;; 1 cycle
// 1004       long_into_char_array4(long_int,char_array);
        MOVW      DE, #LWRD(_char_array)  ;; 1 cycle
        MOVW      BC, S:_long_int+2  ;; 1 cycle
        MOVW      AX, S:_long_int    ;; 1 cycle
          CFI FunCall _long_into_char_array4
        CALL      _long_into_char_array4  ;; 3 cycles
// 1005       val_signed_4byt2(char_array[0],char_array[1],char_array[2],char_array[3]);
        MOV       B, N:_char_array+3  ;; 1 cycle
        MOV       C, N:_char_array+2  ;; 1 cycle
        MOV       X, N:_char_array+1  ;; 1 cycle
        MOV       A, N:_char_array   ;; 1 cycle
          CFI FunCall _val_signed_4byt2
        CALL      _val_signed_4byt2  ;; 3 cycles
// 1006       break;
        BR        N:??compartment3_134  ;; 3 cycles
        ; ------------------------------------- Block: 22 cycles
// 1007       
// 1008     case 0x01150700:
// 1009       long_int= power.Rph.active_signed;                 
??get_resp_64:
        MOVW      BC, N:_power+14    ;; 1 cycle
        MOVW      AX, N:_power+12    ;; 1 cycle
        MOVW      S:_long_int, AX    ;; 1 cycle
        XCHW      AX, BC             ;; 1 cycle
        MOVW      S:_long_int+2, AX  ;; 1 cycle
        XCHW      AX, BC             ;; 1 cycle
// 1010       long_into_char_array4(long_int,char_array);
        MOVW      DE, #LWRD(_char_array)  ;; 1 cycle
        MOVW      BC, S:_long_int+2  ;; 1 cycle
        MOVW      AX, S:_long_int    ;; 1 cycle
          CFI FunCall _long_into_char_array4
        CALL      _long_into_char_array4  ;; 3 cycles
// 1011       val_signed_4byt2(char_array[0],char_array[1],char_array[2],char_array[3]);
        MOV       B, N:_char_array+3  ;; 1 cycle
        MOV       C, N:_char_array+2  ;; 1 cycle
        MOV       X, N:_char_array+1  ;; 1 cycle
        MOV       A, N:_char_array   ;; 1 cycle
          CFI FunCall _val_signed_4byt2
        CALL      _val_signed_4byt2  ;; 3 cycles
// 1012       break;
        BR        N:??compartment3_134  ;; 3 cycles
        ; ------------------------------------- Block: 22 cycles
// 1013       
// 1014     case 0x01290700:
// 1015       long_int= power.Yph.active_signed;                 
??get_resp_65:
        MOVW      BC, N:_power+34    ;; 1 cycle
        MOVW      AX, N:_power+32    ;; 1 cycle
        MOVW      S:_long_int, AX    ;; 1 cycle
        XCHW      AX, BC             ;; 1 cycle
        MOVW      S:_long_int+2, AX  ;; 1 cycle
        XCHW      AX, BC             ;; 1 cycle
// 1016       long_into_char_array4(long_int,char_array);
        MOVW      DE, #LWRD(_char_array)  ;; 1 cycle
        MOVW      BC, S:_long_int+2  ;; 1 cycle
        MOVW      AX, S:_long_int    ;; 1 cycle
          CFI FunCall _long_into_char_array4
        CALL      _long_into_char_array4  ;; 3 cycles
// 1017       val_signed_4byt2(char_array[0],char_array[1],char_array[2],char_array[3]);
        MOV       B, N:_char_array+3  ;; 1 cycle
        MOV       C, N:_char_array+2  ;; 1 cycle
        MOV       X, N:_char_array+1  ;; 1 cycle
        MOV       A, N:_char_array   ;; 1 cycle
          CFI FunCall _val_signed_4byt2
        CALL      _val_signed_4byt2  ;; 3 cycles
// 1018       break;
        BR        N:??compartment3_134  ;; 3 cycles
        ; ------------------------------------- Block: 22 cycles
// 1019       
// 1020     case 0x013D0700:
// 1021       long_int= power.Bph.active_signed;                 
??get_resp_66:
        MOVW      BC, N:_power+54    ;; 1 cycle
        MOVW      AX, N:_power+52    ;; 1 cycle
        MOVW      S:_long_int, AX    ;; 1 cycle
        XCHW      AX, BC             ;; 1 cycle
        MOVW      S:_long_int+2, AX  ;; 1 cycle
        XCHW      AX, BC             ;; 1 cycle
// 1022       long_into_char_array4(long_int,char_array);
        MOVW      DE, #LWRD(_char_array)  ;; 1 cycle
        MOVW      BC, S:_long_int+2  ;; 1 cycle
        MOVW      AX, S:_long_int    ;; 1 cycle
          CFI FunCall _long_into_char_array4
        CALL      _long_into_char_array4  ;; 3 cycles
// 1023       val_signed_4byt2(char_array[0],char_array[1],char_array[2],char_array[3]);
        MOV       B, N:_char_array+3  ;; 1 cycle
        MOV       C, N:_char_array+2  ;; 1 cycle
        MOV       X, N:_char_array+1  ;; 1 cycle
        MOV       A, N:_char_array   ;; 1 cycle
          CFI FunCall _val_signed_4byt2
        CALL      _val_signed_4byt2  ;; 3 cycles
// 1024       break;
        BR        N:??compartment3_134  ;; 3 cycles
        ; ------------------------------------- Block: 22 cycles
// 1025       
// 1026     case 0x01030700:
// 1027       long_int= power.Allph.reactive_signed;
??get_resp_67:
        MOVW      BC, N:_power+86    ;; 1 cycle
        MOVW      AX, N:_power+84    ;; 1 cycle
        MOVW      S:_long_int, AX    ;; 1 cycle
        XCHW      AX, BC             ;; 1 cycle
        MOVW      S:_long_int+2, AX  ;; 1 cycle
        XCHW      AX, BC             ;; 1 cycle
// 1028       long_into_char_array4(long_int,char_array);
        MOVW      DE, #LWRD(_char_array)  ;; 1 cycle
        MOVW      BC, S:_long_int+2  ;; 1 cycle
        MOVW      AX, S:_long_int    ;; 1 cycle
          CFI FunCall _long_into_char_array4
        CALL      _long_into_char_array4  ;; 3 cycles
// 1029       val_signed_4byt2(char_array[0],char_array[1],char_array[2],char_array[3]);
        MOV       B, N:_char_array+3  ;; 1 cycle
        MOV       C, N:_char_array+2  ;; 1 cycle
        MOV       X, N:_char_array+1  ;; 1 cycle
        MOV       A, N:_char_array   ;; 1 cycle
          CFI FunCall _val_signed_4byt2
        CALL      _val_signed_4byt2  ;; 3 cycles
// 1030       break;    
        BR        N:??compartment3_134  ;; 3 cycles
        ; ------------------------------------- Block: 22 cycles
// 1031       
// 1032     case 0x01170700:
// 1033       long_int= power.Rph.reactive_signed;
??get_resp_68:
        MOVW      BC, N:_power+18    ;; 1 cycle
        MOVW      AX, N:_power+16    ;; 1 cycle
        MOVW      S:_long_int, AX    ;; 1 cycle
        XCHW      AX, BC             ;; 1 cycle
        MOVW      S:_long_int+2, AX  ;; 1 cycle
        XCHW      AX, BC             ;; 1 cycle
// 1034       long_into_char_array4(long_int,char_array);
        MOVW      DE, #LWRD(_char_array)  ;; 1 cycle
        MOVW      BC, S:_long_int+2  ;; 1 cycle
        MOVW      AX, S:_long_int    ;; 1 cycle
          CFI FunCall _long_into_char_array4
        CALL      _long_into_char_array4  ;; 3 cycles
// 1035       val_signed_4byt2(char_array[0],char_array[1],char_array[2],char_array[3]);
        MOV       B, N:_char_array+3  ;; 1 cycle
        MOV       C, N:_char_array+2  ;; 1 cycle
        MOV       X, N:_char_array+1  ;; 1 cycle
        MOV       A, N:_char_array   ;; 1 cycle
          CFI FunCall _val_signed_4byt2
        CALL      _val_signed_4byt2  ;; 3 cycles
// 1036       break;    
        BR        N:??compartment3_134  ;; 3 cycles
        ; ------------------------------------- Block: 22 cycles
// 1037       
// 1038     case 0x012B0700:
// 1039       long_int= power.Yph.reactive_signed;
??get_resp_69:
        MOVW      BC, N:_power+38    ;; 1 cycle
        MOVW      AX, N:_power+36    ;; 1 cycle
        MOVW      S:_long_int, AX    ;; 1 cycle
        XCHW      AX, BC             ;; 1 cycle
        MOVW      S:_long_int+2, AX  ;; 1 cycle
        XCHW      AX, BC             ;; 1 cycle
// 1040       long_into_char_array4(long_int,char_array);
        MOVW      DE, #LWRD(_char_array)  ;; 1 cycle
        MOVW      BC, S:_long_int+2  ;; 1 cycle
        MOVW      AX, S:_long_int    ;; 1 cycle
          CFI FunCall _long_into_char_array4
        CALL      _long_into_char_array4  ;; 3 cycles
// 1041       val_signed_4byt2(char_array[0],char_array[1],char_array[2],char_array[3]);
        MOV       B, N:_char_array+3  ;; 1 cycle
        MOV       C, N:_char_array+2  ;; 1 cycle
        MOV       X, N:_char_array+1  ;; 1 cycle
        MOV       A, N:_char_array   ;; 1 cycle
          CFI FunCall _val_signed_4byt2
        CALL      _val_signed_4byt2  ;; 3 cycles
// 1042       break;    
        BR        N:??compartment3_134  ;; 3 cycles
        ; ------------------------------------- Block: 22 cycles
// 1043       
// 1044     case 0x013F0700:
// 1045       long_int= power.Bph.reactive_signed;
??get_resp_70:
        MOVW      BC, N:_power+58    ;; 1 cycle
        MOVW      AX, N:_power+56    ;; 1 cycle
        MOVW      S:_long_int, AX    ;; 1 cycle
        XCHW      AX, BC             ;; 1 cycle
        MOVW      S:_long_int+2, AX  ;; 1 cycle
        XCHW      AX, BC             ;; 1 cycle
// 1046       long_into_char_array4(long_int,char_array);
        MOVW      DE, #LWRD(_char_array)  ;; 1 cycle
        MOVW      BC, S:_long_int+2  ;; 1 cycle
        MOVW      AX, S:_long_int    ;; 1 cycle
          CFI FunCall _long_into_char_array4
        CALL      _long_into_char_array4  ;; 3 cycles
// 1047       val_signed_4byt2(char_array[0],char_array[1],char_array[2],char_array[3]);
        MOV       B, N:_char_array+3  ;; 1 cycle
        MOV       C, N:_char_array+2  ;; 1 cycle
        MOV       X, N:_char_array+1  ;; 1 cycle
        MOV       A, N:_char_array   ;; 1 cycle
          CFI FunCall _val_signed_4byt2
        CALL      _val_signed_4byt2  ;; 3 cycles
// 1048       break;    
        BR        N:??compartment3_134  ;; 3 cycles
        ; ------------------------------------- Block: 22 cycles
// 1049       
// 1050     case 0x01090700:
// 1051       long_int= power.Allph.apparent_net;    
??get_resp_71:
        MOVW      BC, N:_power+74    ;; 1 cycle
        MOVW      AX, N:_power+72    ;; 1 cycle
        MOVW      S:_long_int, AX    ;; 1 cycle
        XCHW      AX, BC             ;; 1 cycle
        MOVW      S:_long_int+2, AX  ;; 1 cycle
        XCHW      AX, BC             ;; 1 cycle
// 1052       long_into_char_array4(long_int,char_array);
        MOVW      DE, #LWRD(_char_array)  ;; 1 cycle
        MOVW      BC, S:_long_int+2  ;; 1 cycle
        MOVW      AX, S:_long_int    ;; 1 cycle
          CFI FunCall _long_into_char_array4
        CALL      _long_into_char_array4  ;; 3 cycles
// 1053       val_4byt2(char_array[0], char_array[1], char_array[2], char_array[3]);
        MOV       B, N:_char_array+3  ;; 1 cycle
        MOV       C, N:_char_array+2  ;; 1 cycle
        MOV       X, N:_char_array+1  ;; 1 cycle
        MOV       A, N:_char_array   ;; 1 cycle
          CFI FunCall _val_4byt2
        CALL      _val_4byt2         ;; 3 cycles
// 1054       break;
        BR        N:??compartment3_134  ;; 3 cycles
        ; ------------------------------------- Block: 22 cycles
// 1055       
// 1056     case 0x011D0700:
// 1057       long_int= power.Rph.apparent;    
??get_resp_72:
        MOVW      BC, N:_power+10    ;; 1 cycle
        MOVW      AX, N:_power+8     ;; 1 cycle
        MOVW      S:_long_int, AX    ;; 1 cycle
        XCHW      AX, BC             ;; 1 cycle
        MOVW      S:_long_int+2, AX  ;; 1 cycle
        XCHW      AX, BC             ;; 1 cycle
// 1058       long_into_char_array4(long_int,char_array);
        MOVW      DE, #LWRD(_char_array)  ;; 1 cycle
        MOVW      BC, S:_long_int+2  ;; 1 cycle
        MOVW      AX, S:_long_int    ;; 1 cycle
          CFI FunCall _long_into_char_array4
        CALL      _long_into_char_array4  ;; 3 cycles
// 1059       val_4byt2(char_array[0], char_array[1], char_array[2], char_array[3]);
        MOV       B, N:_char_array+3  ;; 1 cycle
        MOV       C, N:_char_array+2  ;; 1 cycle
        MOV       X, N:_char_array+1  ;; 1 cycle
        MOV       A, N:_char_array   ;; 1 cycle
          CFI FunCall _val_4byt2
        CALL      _val_4byt2         ;; 3 cycles
// 1060       break;
        BR        N:??compartment3_134  ;; 3 cycles
        ; ------------------------------------- Block: 22 cycles
// 1061       
// 1062     case 0x01310700:
// 1063       long_int= power.Yph.apparent;   
??get_resp_73:
        MOVW      BC, N:_power+30    ;; 1 cycle
        MOVW      AX, N:_power+28    ;; 1 cycle
        MOVW      S:_long_int, AX    ;; 1 cycle
        XCHW      AX, BC             ;; 1 cycle
        MOVW      S:_long_int+2, AX  ;; 1 cycle
        XCHW      AX, BC             ;; 1 cycle
// 1064       long_into_char_array4(long_int,char_array);
        MOVW      DE, #LWRD(_char_array)  ;; 1 cycle
        MOVW      BC, S:_long_int+2  ;; 1 cycle
        MOVW      AX, S:_long_int    ;; 1 cycle
          CFI FunCall _long_into_char_array4
        CALL      _long_into_char_array4  ;; 3 cycles
// 1065       val_4byt2(char_array[0], char_array[1], char_array[2], char_array[3]);
        MOV       B, N:_char_array+3  ;; 1 cycle
        MOV       C, N:_char_array+2  ;; 1 cycle
        MOV       X, N:_char_array+1  ;; 1 cycle
        MOV       A, N:_char_array   ;; 1 cycle
          CFI FunCall _val_4byt2
        CALL      _val_4byt2         ;; 3 cycles
// 1066       break;
        BR        N:??compartment3_134  ;; 3 cycles
        ; ------------------------------------- Block: 22 cycles
// 1067       
// 1068     case 0x01450700:
// 1069       long_int= power.Bph.apparent;    
??get_resp_74:
        MOVW      BC, N:_power+50    ;; 1 cycle
        MOVW      AX, N:_power+48    ;; 1 cycle
        MOVW      S:_long_int, AX    ;; 1 cycle
        XCHW      AX, BC             ;; 1 cycle
        MOVW      S:_long_int+2, AX  ;; 1 cycle
        XCHW      AX, BC             ;; 1 cycle
// 1070       long_into_char_array4(long_int,char_array);
        MOVW      DE, #LWRD(_char_array)  ;; 1 cycle
        MOVW      BC, S:_long_int+2  ;; 1 cycle
        MOVW      AX, S:_long_int    ;; 1 cycle
          CFI FunCall _long_into_char_array4
        CALL      _long_into_char_array4  ;; 3 cycles
// 1071       val_4byt2(char_array[0], char_array[1], char_array[2], char_array[3]);
        MOV       B, N:_char_array+3  ;; 1 cycle
        MOV       C, N:_char_array+2  ;; 1 cycle
        MOV       X, N:_char_array+1  ;; 1 cycle
        MOV       A, N:_char_array   ;; 1 cycle
          CFI FunCall _val_4byt2
        CALL      _val_4byt2         ;; 3 cycles
// 1072       break;
        BR        N:??compartment3_134  ;; 3 cycles
        ; ------------------------------------- Block: 22 cycles
// 1073       
// 1074     case 0x005e5b08:
// 1075       long_into_char_array4(power_off_min , char_array);
??get_resp_75:
        MOVW      DE, #LWRD(_char_array)  ;; 1 cycle
        MOVW      BC, N:_power_off_min+2  ;; 1 cycle
        MOVW      AX, N:_power_off_min  ;; 1 cycle
          CFI FunCall _long_into_char_array4
        CALL      _long_into_char_array4  ;; 3 cycles
// 1076       val_4byt2(char_array[0],char_array[1],char_array[2],char_array[3]);
        MOV       B, N:_char_array+3  ;; 1 cycle
        MOV       C, N:_char_array+2  ;; 1 cycle
        MOV       X, N:_char_array+1  ;; 1 cycle
        MOV       A, N:_char_array   ;; 1 cycle
          CFI FunCall _val_4byt2
        CALL      _val_4byt2         ;; 3 cycles
// 1077       break;
        BR        N:??compartment3_134  ;; 3 cycles
        ; ------------------------------------- Block: 16 cycles
// 1078       
// 1079     case 0x005e5b0d:
// 1080       long_into_char_array4(power_on_min , char_array);
??get_resp_76:
        MOVW      DE, #LWRD(_char_array)  ;; 1 cycle
        MOVW      BC, N:_power_on_min+2  ;; 1 cycle
        MOVW      AX, N:_power_on_min  ;; 1 cycle
          CFI FunCall _long_into_char_array4
        CALL      _long_into_char_array4  ;; 3 cycles
// 1081       val_4byt2(char_array[0],char_array[1],char_array[2],char_array[3]);
        MOV       B, N:_char_array+3  ;; 1 cycle
        MOV       C, N:_char_array+2  ;; 1 cycle
        MOV       X, N:_char_array+1  ;; 1 cycle
        MOV       A, N:_char_array   ;; 1 cycle
          CFI FunCall _val_4byt2
        CALL      _val_4byt2         ;; 3 cycles
// 1082       break;
        BR        N:??compartment3_134  ;; 3 cycles
        ; ------------------------------------- Block: 16 cycles
// 1083       
// 1084     case 0x01010800:
// 1085       long_int= energy.Allph.active_imp;
??get_resp_77:
        MOVW      BC, N:_energy+54   ;; 1 cycle
        MOVW      AX, N:_energy+52   ;; 1 cycle
        MOVW      S:_long_int, AX    ;; 1 cycle
        XCHW      AX, BC             ;; 1 cycle
        MOVW      S:_long_int+2, AX  ;; 1 cycle
        XCHW      AX, BC             ;; 1 cycle
// 1086       long_into_char_array4(long_int,char_array);
        MOVW      DE, #LWRD(_char_array)  ;; 1 cycle
        MOVW      BC, S:_long_int+2  ;; 1 cycle
        MOVW      AX, S:_long_int    ;; 1 cycle
          CFI FunCall _long_into_char_array4
        CALL      _long_into_char_array4  ;; 3 cycles
// 1087       val_4byt2(char_array[0], char_array[1], char_array[2], char_array[3]); 
        MOV       B, N:_char_array+3  ;; 1 cycle
        MOV       C, N:_char_array+2  ;; 1 cycle
        MOV       X, N:_char_array+1  ;; 1 cycle
        MOV       A, N:_char_array   ;; 1 cycle
          CFI FunCall _val_4byt2
        CALL      _val_4byt2         ;; 3 cycles
// 1088       break;
        BR        N:??compartment3_134  ;; 3 cycles
        ; ------------------------------------- Block: 22 cycles
// 1089       
// 1090     case 0x01020800:
// 1091       long_int= energy.Allph.active_exp;
??get_resp_78:
        MOVW      BC, N:_energy+58   ;; 1 cycle
        MOVW      AX, N:_energy+56   ;; 1 cycle
        MOVW      S:_long_int, AX    ;; 1 cycle
        XCHW      AX, BC             ;; 1 cycle
        MOVW      S:_long_int+2, AX  ;; 1 cycle
        XCHW      AX, BC             ;; 1 cycle
// 1092       long_into_char_array4(long_int,char_array);
        MOVW      DE, #LWRD(_char_array)  ;; 1 cycle
        MOVW      BC, S:_long_int+2  ;; 1 cycle
        MOVW      AX, S:_long_int    ;; 1 cycle
          CFI FunCall _long_into_char_array4
        CALL      _long_into_char_array4  ;; 3 cycles
// 1093       val_4byt2(char_array[0], char_array[1], char_array[2], char_array[3]); 
        MOV       B, N:_char_array+3  ;; 1 cycle
        MOV       C, N:_char_array+2  ;; 1 cycle
        MOV       X, N:_char_array+1  ;; 1 cycle
        MOV       A, N:_char_array   ;; 1 cycle
          CFI FunCall _val_4byt2
        CALL      _val_4byt2         ;; 3 cycles
// 1094       break;
        BR        N:??compartment3_134  ;; 3 cycles
        ; ------------------------------------- Block: 22 cycles
// 1095       
// 1096     case 0x01050800:
// 1097       long_int= energy.Allph.reactive_q1; 
??get_resp_79:
        MOVW      BC, N:_energy+78   ;; 1 cycle
        MOVW      AX, N:_energy+76   ;; 1 cycle
        MOVW      S:_long_int, AX    ;; 1 cycle
        XCHW      AX, BC             ;; 1 cycle
        MOVW      S:_long_int+2, AX  ;; 1 cycle
        XCHW      AX, BC             ;; 1 cycle
// 1098       long_into_char_array4(long_int,char_array);
        MOVW      DE, #LWRD(_char_array)  ;; 1 cycle
        MOVW      BC, S:_long_int+2  ;; 1 cycle
        MOVW      AX, S:_long_int    ;; 1 cycle
          CFI FunCall _long_into_char_array4
        CALL      _long_into_char_array4  ;; 3 cycles
// 1099       val_4byt2(char_array[0], char_array[1], char_array[2], char_array[3]); 
        MOV       B, N:_char_array+3  ;; 1 cycle
        MOV       C, N:_char_array+2  ;; 1 cycle
        MOV       X, N:_char_array+1  ;; 1 cycle
        MOV       A, N:_char_array   ;; 1 cycle
          CFI FunCall _val_4byt2
        CALL      _val_4byt2         ;; 3 cycles
// 1100       break;
        BR        N:??compartment3_134  ;; 3 cycles
        ; ------------------------------------- Block: 22 cycles
// 1101       
// 1102     case 0x01060800:
// 1103       long_int= energy.Allph.reactive_q2; 
??get_resp_80:
        MOVW      BC, N:_energy+82   ;; 1 cycle
        MOVW      AX, N:_energy+80   ;; 1 cycle
        MOVW      S:_long_int, AX    ;; 1 cycle
        XCHW      AX, BC             ;; 1 cycle
        MOVW      S:_long_int+2, AX  ;; 1 cycle
        XCHW      AX, BC             ;; 1 cycle
// 1104       long_into_char_array4(long_int,char_array);
        MOVW      DE, #LWRD(_char_array)  ;; 1 cycle
        MOVW      BC, S:_long_int+2  ;; 1 cycle
        MOVW      AX, S:_long_int    ;; 1 cycle
          CFI FunCall _long_into_char_array4
        CALL      _long_into_char_array4  ;; 3 cycles
// 1105       val_4byt2(char_array[0], char_array[1], char_array[2], char_array[3]); 
        MOV       B, N:_char_array+3  ;; 1 cycle
        MOV       C, N:_char_array+2  ;; 1 cycle
        MOV       X, N:_char_array+1  ;; 1 cycle
        MOV       A, N:_char_array   ;; 1 cycle
          CFI FunCall _val_4byt2
        CALL      _val_4byt2         ;; 3 cycles
// 1106       break;
        BR        N:??compartment3_134  ;; 3 cycles
        ; ------------------------------------- Block: 22 cycles
// 1107       
// 1108     case 0x01070800:
// 1109       long_int= energy.Allph.reactive_q3; 
??get_resp_81:
        MOVW      BC, N:_energy+86   ;; 1 cycle
        MOVW      AX, N:_energy+84   ;; 1 cycle
        MOVW      S:_long_int, AX    ;; 1 cycle
        XCHW      AX, BC             ;; 1 cycle
        MOVW      S:_long_int+2, AX  ;; 1 cycle
        XCHW      AX, BC             ;; 1 cycle
// 1110       long_into_char_array4(long_int,char_array);
        MOVW      DE, #LWRD(_char_array)  ;; 1 cycle
        MOVW      BC, S:_long_int+2  ;; 1 cycle
        MOVW      AX, S:_long_int    ;; 1 cycle
          CFI FunCall _long_into_char_array4
        CALL      _long_into_char_array4  ;; 3 cycles
// 1111       val_4byt2(char_array[0], char_array[1], char_array[2], char_array[3]); 
        MOV       B, N:_char_array+3  ;; 1 cycle
        MOV       C, N:_char_array+2  ;; 1 cycle
        MOV       X, N:_char_array+1  ;; 1 cycle
        MOV       A, N:_char_array   ;; 1 cycle
          CFI FunCall _val_4byt2
        CALL      _val_4byt2         ;; 3 cycles
// 1112       break;
        BR        N:??compartment3_134  ;; 3 cycles
        ; ------------------------------------- Block: 22 cycles
// 1113       
// 1114     case 0x01080800:
// 1115       long_int= energy.Allph.reactive_q4; 
??get_resp_82:
        MOVW      BC, N:_energy+90   ;; 1 cycle
        MOVW      AX, N:_energy+88   ;; 1 cycle
        MOVW      S:_long_int, AX    ;; 1 cycle
        XCHW      AX, BC             ;; 1 cycle
        MOVW      S:_long_int+2, AX  ;; 1 cycle
        XCHW      AX, BC             ;; 1 cycle
// 1116       long_into_char_array4(long_int,char_array);
        MOVW      DE, #LWRD(_char_array)  ;; 1 cycle
        MOVW      BC, S:_long_int+2  ;; 1 cycle
        MOVW      AX, S:_long_int    ;; 1 cycle
          CFI FunCall _long_into_char_array4
        CALL      _long_into_char_array4  ;; 3 cycles
// 1117       val_4byt2(char_array[0], char_array[1], char_array[2], char_array[3]); 
        MOV       B, N:_char_array+3  ;; 1 cycle
        MOV       C, N:_char_array+2  ;; 1 cycle
        MOV       X, N:_char_array+1  ;; 1 cycle
        MOV       A, N:_char_array   ;; 1 cycle
          CFI FunCall _val_4byt2
        CALL      _val_4byt2         ;; 3 cycles
// 1118       break;
        BR        N:??compartment3_134  ;; 3 cycles
        ; ------------------------------------- Block: 22 cycles
// 1119       
// 1120     case 0x01090800:
// 1121       long_int= energy.Allph.apparent_imp;
??get_resp_83:
        MOVW      BC, N:_energy+70   ;; 1 cycle
        MOVW      AX, N:_energy+68   ;; 1 cycle
        MOVW      S:_long_int, AX    ;; 1 cycle
        XCHW      AX, BC             ;; 1 cycle
        MOVW      S:_long_int+2, AX  ;; 1 cycle
        XCHW      AX, BC             ;; 1 cycle
// 1122       long_into_char_array4(long_int,char_array);
        MOVW      DE, #LWRD(_char_array)  ;; 1 cycle
        MOVW      BC, S:_long_int+2  ;; 1 cycle
        MOVW      AX, S:_long_int    ;; 1 cycle
          CFI FunCall _long_into_char_array4
        CALL      _long_into_char_array4  ;; 3 cycles
// 1123       val_4byt2(char_array[0], char_array[1], char_array[2], char_array[3]); 
        MOV       B, N:_char_array+3  ;; 1 cycle
        MOV       C, N:_char_array+2  ;; 1 cycle
        MOV       X, N:_char_array+1  ;; 1 cycle
        MOV       A, N:_char_array   ;; 1 cycle
          CFI FunCall _val_4byt2
        CALL      _val_4byt2         ;; 3 cycles
// 1124       break;
        BR        N:??compartment3_134  ;; 3 cycles
        ; ------------------------------------- Block: 22 cycles
// 1125       
// 1126     case 0x010A0800:
// 1127       long_int= energy.Allph.apparent_exp;
??get_resp_84:
        MOVW      BC, N:_energy+74   ;; 1 cycle
        MOVW      AX, N:_energy+72   ;; 1 cycle
        MOVW      S:_long_int, AX    ;; 1 cycle
        XCHW      AX, BC             ;; 1 cycle
        MOVW      S:_long_int+2, AX  ;; 1 cycle
        XCHW      AX, BC             ;; 1 cycle
// 1128       long_into_char_array4(long_int,char_array);
        MOVW      DE, #LWRD(_char_array)  ;; 1 cycle
        MOVW      BC, S:_long_int+2  ;; 1 cycle
        MOVW      AX, S:_long_int    ;; 1 cycle
          CFI FunCall _long_into_char_array4
        CALL      _long_into_char_array4  ;; 3 cycles
// 1129       val_4byt2(char_array[0], char_array[1], char_array[2], char_array[3]); 
        MOV       B, N:_char_array+3  ;; 1 cycle
        MOV       C, N:_char_array+2  ;; 1 cycle
        MOV       X, N:_char_array+1  ;; 1 cycle
        MOV       A, N:_char_array   ;; 1 cycle
          CFI FunCall _val_4byt2
        CALL      _val_4byt2         ;; 3 cycles
// 1130       break;
        BR        N:??compartment3_134  ;; 3 cycles
        ; ------------------------------------- Block: 22 cycles
// 1131       
// 1132     case 0x01010200:
// 1133       long_int= cum_max_demand_kw;
??get_resp_85:
        MOVW      BC, N:_cum_max_demand_kw+2  ;; 1 cycle
        MOVW      AX, N:_cum_max_demand_kw  ;; 1 cycle
        MOVW      S:_long_int, AX    ;; 1 cycle
        XCHW      AX, BC             ;; 1 cycle
        MOVW      S:_long_int+2, AX  ;; 1 cycle
        XCHW      AX, BC             ;; 1 cycle
// 1134       long_into_char_array4(long_int,char_array);
        MOVW      DE, #LWRD(_char_array)  ;; 1 cycle
        MOVW      BC, S:_long_int+2  ;; 1 cycle
        MOVW      AX, S:_long_int    ;; 1 cycle
          CFI FunCall _long_into_char_array4
        CALL      _long_into_char_array4  ;; 3 cycles
// 1135       val_4byt2(char_array[0], char_array[1], char_array[2], char_array[3]);
        MOV       B, N:_char_array+3  ;; 1 cycle
        MOV       C, N:_char_array+2  ;; 1 cycle
        MOV       X, N:_char_array+1  ;; 1 cycle
        MOV       A, N:_char_array   ;; 1 cycle
          CFI FunCall _val_4byt2
        CALL      _val_4byt2         ;; 3 cycles
// 1136       break;
        BR        N:??compartment3_134  ;; 3 cycles
        ; ------------------------------------- Block: 22 cycles
// 1137       
// 1138     case 0x01090200:
// 1139       long_int= cum_max_demand_kva;
??get_resp_86:
        MOVW      BC, N:_cum_max_demand_kva+2  ;; 1 cycle
        MOVW      AX, N:_cum_max_demand_kva  ;; 1 cycle
        MOVW      S:_long_int, AX    ;; 1 cycle
        XCHW      AX, BC             ;; 1 cycle
        MOVW      S:_long_int+2, AX  ;; 1 cycle
        XCHW      AX, BC             ;; 1 cycle
// 1140       long_into_char_array4(long_int,char_array);
        MOVW      DE, #LWRD(_char_array)  ;; 1 cycle
        MOVW      BC, S:_long_int+2  ;; 1 cycle
        MOVW      AX, S:_long_int    ;; 1 cycle
          CFI FunCall _long_into_char_array4
        CALL      _long_into_char_array4  ;; 3 cycles
// 1141       val_4byt2(char_array[0], char_array[1], char_array[2], char_array[3]); 
        MOV       B, N:_char_array+3  ;; 1 cycle
        MOV       C, N:_char_array+2  ;; 1 cycle
        MOV       X, N:_char_array+1  ;; 1 cycle
        MOV       A, N:_char_array   ;; 1 cycle
          CFI FunCall _val_4byt2
        CALL      _val_4byt2         ;; 3 cycles
// 1142       break;
        BR        N:??compartment3_134  ;; 3 cycles
        ; ------------------------------------- Block: 22 cycles
// 1143       
// 1144     case 0x01800800:
// 1145       long_int= energy.Allph.fundamental;
??get_resp_87:
        MOVW      BC, N:_energy+66   ;; 1 cycle
        MOVW      AX, N:_energy+64   ;; 1 cycle
        MOVW      S:_long_int, AX    ;; 1 cycle
        XCHW      AX, BC             ;; 1 cycle
        MOVW      S:_long_int+2, AX  ;; 1 cycle
        XCHW      AX, BC             ;; 1 cycle
// 1146       long_into_char_array4(long_int,char_array);
        MOVW      DE, #LWRD(_char_array)  ;; 1 cycle
        MOVW      BC, S:_long_int+2  ;; 1 cycle
        MOVW      AX, S:_long_int    ;; 1 cycle
          CFI FunCall _long_into_char_array4
        CALL      _long_into_char_array4  ;; 3 cycles
// 1147       val_4byt2(char_array[0], char_array[1], char_array[2], char_array[3]); 
        MOV       B, N:_char_array+3  ;; 1 cycle
        MOV       C, N:_char_array+2  ;; 1 cycle
        MOV       X, N:_char_array+1  ;; 1 cycle
        MOV       A, N:_char_array   ;; 1 cycle
          CFI FunCall _val_4byt2
        CALL      _val_4byt2         ;; 3 cycles
// 1148       break;
        BR        N:??compartment3_134  ;; 3 cycles
        ; ------------------------------------- Block: 22 cycles
// 1149       /*        case 0x01960800:
// 1150       long_int= defraud_kwh;
// 1151       long_to_char_array();
// 1152       val_4byt2(char_array[0], char_array[1], char_array[2], char_array[3]); // kwh 
// 1153       break;
// 1154       */
// 1155       
// 1156     case 0x018E0800:
// 1157       long_int= get_hr_energy(energy.Allph.active_imp,energy.Allph.active_imp_pulse);
??get_resp_88:
        MOVW      AX, SP             ;; 1 cycle
        ADDW      AX, #0x1A          ;; 1 cycle
        MOVW      DE, AX             ;; 1 cycle
        PUSH      DE                 ;; 1 cycle
          CFI CFA SP+48
        MOV       A, N:_energy+42    ;; 1 cycle
        XCH       A, X               ;; 1 cycle
        PUSH      AX                 ;; 1 cycle
          CFI CFA SP+50
        XCH       A, X               ;; 1 cycle
        MOVW      BC, N:_energy+54   ;; 1 cycle
        MOVW      AX, N:_energy+52   ;; 1 cycle
        PUSH      BC                 ;; 1 cycle
          CFI CFA SP+52
        POP       DE                 ;; 1 cycle
          CFI CFA SP+50
        MOVW      BC, AX             ;; 1 cycle
        MOVW      AX, SP             ;; 1 cycle
        ADDW      AX, #0x26          ;; 1 cycle
          CFI FunCall _get_hr_energy
        CALL      _get_hr_energy     ;; 3 cycles
        MOVW      HL, AX             ;; 1 cycle
        ADDW      SP, #0x2           ;; 1 cycle
          CFI CFA SP+48
        POP       DE                 ;; 1 cycle
          CFI CFA SP+46
        MOVW      AX, [HL]           ;; 1 cycle
        MOVW      [DE], AX           ;; 1 cycle
        MOVW      AX, [HL+0x02]      ;; 1 cycle
        MOVW      [DE+0x02], AX      ;; 1 cycle
        MOVW      AX, [HL+0x04]      ;; 1 cycle
        MOVW      [DE+0x04], AX      ;; 1 cycle
        MOVW      AX, [HL+0x06]      ;; 1 cycle
        MOVW      [DE+0x06], AX      ;; 1 cycle
        MOVW      AX, SP             ;; 1 cycle
        ADDW      AX, #0x1A          ;; 1 cycle
          CFI FunCall __LLU2L
        CALL      __LLU2L            ;; 3 cycles
        MOVW      S:_long_int, AX    ;; 1 cycle
        XCHW      AX, BC             ;; 1 cycle
        MOVW      S:_long_int+2, AX  ;; 1 cycle
        XCHW      AX, BC             ;; 1 cycle
// 1158       long_into_char_array4(long_int,char_array);
        MOVW      DE, #LWRD(_char_array)  ;; 1 cycle
        MOVW      BC, S:_long_int+2  ;; 1 cycle
        MOVW      AX, S:_long_int    ;; 1 cycle
          CFI FunCall _long_into_char_array4
        CALL      _long_into_char_array4  ;; 3 cycles
// 1159       val_4byt2(char_array[0], char_array[1], char_array[2], char_array[3]);
        MOV       B, N:_char_array+3  ;; 1 cycle
        MOV       C, N:_char_array+2  ;; 1 cycle
        MOV       X, N:_char_array+1  ;; 1 cycle
        MOV       A, N:_char_array   ;; 1 cycle
          CFI FunCall _val_4byt2
        CALL      _val_4byt2         ;; 3 cycles
// 1160       break;
        BR        N:??compartment3_134  ;; 3 cycles
        ; ------------------------------------- Block: 54 cycles
// 1161       
// 1162     case 0x018F0800:
// 1163       long_int= get_hr_energy(energy.Allph.reactive_q1,energy.Allph.reactive_q1_pulse);
??get_resp_89:
        MOVW      AX, SP             ;; 1 cycle
        ADDW      AX, #0x1A          ;; 1 cycle
        MOVW      DE, AX             ;; 1 cycle
        PUSH      DE                 ;; 1 cycle
          CFI CFA SP+48
        MOV       A, N:_energy+47    ;; 1 cycle
        XCH       A, X               ;; 1 cycle
        PUSH      AX                 ;; 1 cycle
          CFI CFA SP+50
        XCH       A, X               ;; 1 cycle
        MOVW      BC, N:_energy+78   ;; 1 cycle
        MOVW      AX, N:_energy+76   ;; 1 cycle
        PUSH      BC                 ;; 1 cycle
          CFI CFA SP+52
        POP       DE                 ;; 1 cycle
          CFI CFA SP+50
        MOVW      BC, AX             ;; 1 cycle
        MOVW      AX, SP             ;; 1 cycle
        ADDW      AX, #0x26          ;; 1 cycle
          CFI FunCall _get_hr_energy
        CALL      _get_hr_energy     ;; 3 cycles
        MOVW      HL, AX             ;; 1 cycle
        ADDW      SP, #0x2           ;; 1 cycle
          CFI CFA SP+48
        POP       DE                 ;; 1 cycle
          CFI CFA SP+46
        MOVW      AX, [HL]           ;; 1 cycle
        MOVW      [DE], AX           ;; 1 cycle
        MOVW      AX, [HL+0x02]      ;; 1 cycle
        MOVW      [DE+0x02], AX      ;; 1 cycle
        MOVW      AX, [HL+0x04]      ;; 1 cycle
        MOVW      [DE+0x04], AX      ;; 1 cycle
        MOVW      AX, [HL+0x06]      ;; 1 cycle
        MOVW      [DE+0x06], AX      ;; 1 cycle
        MOVW      AX, SP             ;; 1 cycle
        ADDW      AX, #0x1A          ;; 1 cycle
          CFI FunCall __LLU2L
        CALL      __LLU2L            ;; 3 cycles
        MOVW      S:_long_int, AX    ;; 1 cycle
        XCHW      AX, BC             ;; 1 cycle
        MOVW      S:_long_int+2, AX  ;; 1 cycle
        XCHW      AX, BC             ;; 1 cycle
// 1164       long_into_char_array4(long_int,char_array);
        MOVW      DE, #LWRD(_char_array)  ;; 1 cycle
        MOVW      BC, S:_long_int+2  ;; 1 cycle
        MOVW      AX, S:_long_int    ;; 1 cycle
          CFI FunCall _long_into_char_array4
        CALL      _long_into_char_array4  ;; 3 cycles
// 1165       val_4byt2(char_array[0], char_array[1], char_array[2], char_array[3]); 
        MOV       B, N:_char_array+3  ;; 1 cycle
        MOV       C, N:_char_array+2  ;; 1 cycle
        MOV       X, N:_char_array+1  ;; 1 cycle
        MOV       A, N:_char_array   ;; 1 cycle
          CFI FunCall _val_4byt2
        CALL      _val_4byt2         ;; 3 cycles
// 1166       break;
        BR        N:??compartment3_134  ;; 3 cycles
        ; ------------------------------------- Block: 54 cycles
// 1167       
// 1168     case 0x01900800:
// 1169       long_int= get_hr_energy(energy.Allph.reactive_q4,energy.Allph.reactive_q4_pulse); 
??get_resp_90:
        MOVW      AX, SP             ;; 1 cycle
        ADDW      AX, #0x1A          ;; 1 cycle
        MOVW      DE, AX             ;; 1 cycle
        PUSH      DE                 ;; 1 cycle
          CFI CFA SP+48
        MOV       A, N:_energy+50    ;; 1 cycle
        XCH       A, X               ;; 1 cycle
        PUSH      AX                 ;; 1 cycle
          CFI CFA SP+50
        XCH       A, X               ;; 1 cycle
        MOVW      BC, N:_energy+90   ;; 1 cycle
        MOVW      AX, N:_energy+88   ;; 1 cycle
        PUSH      BC                 ;; 1 cycle
          CFI CFA SP+52
        POP       DE                 ;; 1 cycle
          CFI CFA SP+50
        MOVW      BC, AX             ;; 1 cycle
        MOVW      AX, SP             ;; 1 cycle
        ADDW      AX, #0x26          ;; 1 cycle
          CFI FunCall _get_hr_energy
        CALL      _get_hr_energy     ;; 3 cycles
        MOVW      HL, AX             ;; 1 cycle
        ADDW      SP, #0x2           ;; 1 cycle
          CFI CFA SP+48
        POP       DE                 ;; 1 cycle
          CFI CFA SP+46
        MOVW      AX, [HL]           ;; 1 cycle
        MOVW      [DE], AX           ;; 1 cycle
        MOVW      AX, [HL+0x02]      ;; 1 cycle
        MOVW      [DE+0x02], AX      ;; 1 cycle
        MOVW      AX, [HL+0x04]      ;; 1 cycle
        MOVW      [DE+0x04], AX      ;; 1 cycle
        MOVW      AX, [HL+0x06]      ;; 1 cycle
        MOVW      [DE+0x06], AX      ;; 1 cycle
        MOVW      AX, SP             ;; 1 cycle
        ADDW      AX, #0x1A          ;; 1 cycle
          CFI FunCall __LLU2L
        CALL      __LLU2L            ;; 3 cycles
        MOVW      S:_long_int, AX    ;; 1 cycle
        XCHW      AX, BC             ;; 1 cycle
        MOVW      S:_long_int+2, AX  ;; 1 cycle
        XCHW      AX, BC             ;; 1 cycle
// 1170       long_into_char_array4(long_int,char_array);
        MOVW      DE, #LWRD(_char_array)  ;; 1 cycle
        MOVW      BC, S:_long_int+2  ;; 1 cycle
        MOVW      AX, S:_long_int    ;; 1 cycle
          CFI FunCall _long_into_char_array4
        CALL      _long_into_char_array4  ;; 3 cycles
// 1171       val_4byt2(char_array[0], char_array[1], char_array[2], char_array[3]); 
        MOV       B, N:_char_array+3  ;; 1 cycle
        MOV       C, N:_char_array+2  ;; 1 cycle
        MOV       X, N:_char_array+1  ;; 1 cycle
        MOV       A, N:_char_array   ;; 1 cycle
          CFI FunCall _val_4byt2
        CALL      _val_4byt2         ;; 3 cycles
// 1172       break;
        BR        N:??compartment3_134  ;; 3 cycles
        ; ------------------------------------- Block: 54 cycles
// 1173       
// 1174     case 0x01910800:
// 1175       long_int= get_hr_energy(energy.Allph.apparent_imp,energy.Allph.apparent_imp_pulse);
??get_resp_91:
        MOVW      AX, SP             ;; 1 cycle
        ADDW      AX, #0x1A          ;; 1 cycle
        MOVW      DE, AX             ;; 1 cycle
        PUSH      DE                 ;; 1 cycle
          CFI CFA SP+48
        MOV       A, N:_energy+45    ;; 1 cycle
        XCH       A, X               ;; 1 cycle
        PUSH      AX                 ;; 1 cycle
          CFI CFA SP+50
        XCH       A, X               ;; 1 cycle
        MOVW      BC, N:_energy+70   ;; 1 cycle
        MOVW      AX, N:_energy+68   ;; 1 cycle
        PUSH      BC                 ;; 1 cycle
          CFI CFA SP+52
        POP       DE                 ;; 1 cycle
          CFI CFA SP+50
        MOVW      BC, AX             ;; 1 cycle
        MOVW      AX, SP             ;; 1 cycle
        ADDW      AX, #0x26          ;; 1 cycle
          CFI FunCall _get_hr_energy
        CALL      _get_hr_energy     ;; 3 cycles
        MOVW      HL, AX             ;; 1 cycle
        ADDW      SP, #0x2           ;; 1 cycle
          CFI CFA SP+48
        POP       DE                 ;; 1 cycle
          CFI CFA SP+46
        MOVW      AX, [HL]           ;; 1 cycle
        MOVW      [DE], AX           ;; 1 cycle
        MOVW      AX, [HL+0x02]      ;; 1 cycle
        MOVW      [DE+0x02], AX      ;; 1 cycle
        MOVW      AX, [HL+0x04]      ;; 1 cycle
        MOVW      [DE+0x04], AX      ;; 1 cycle
        MOVW      AX, [HL+0x06]      ;; 1 cycle
        MOVW      [DE+0x06], AX      ;; 1 cycle
