///////////////////////////////////////////////////////////////////////////////
//
// IAR C/C++ Compiler V4.20.1.2260 for RL78               20/Dec/2020  22:38:41
// Copyright 2011-2019 IAR Systems AB.
// Network license: 192.10.10.205 (STD)
//
//    Core               =  s3
//    Calling convention =  v2
//    Code model         =  Near
//    Data model         =  Near
//                       =   
//    Source file        =
//        D:\Dheeraj\New folder\0. GDEV72 -
//        BootCode\source_code\source_files\metrology.c
//    Command line       =
//        -f C:\Users\laptop\AppData\Local\Temp\EW9D0D.tmp ("D:\Dheeraj\New
//        folder\0. GDEV72 - BootCode\source_code\source_files\metrology.c"
//        --core s3 --code_model near --calling_convention v2
//        --near_const_location ram -o "D:\Dheeraj\New folder\0. GDEV72 -
//        BootCode\Debug\Obj" --dlib_config "C:\Program Files\IAR
//        Systems\Embedded Workbench 8.4\rl78\LIB\DLib_Config_Normal.h"
//        --double=32 -e -On --no_cse --no_unroll --no_inline --no_code_motion
//        --no_tbaa --no_cross_call --no_scheduling --no_clustering --debug -lA
//        "D:\Dheeraj\New folder\0. GDEV72 - BootCode\Debug\List" -I
//        "D:\Dheeraj\New folder\0. GDEV72 -
//        BootCode\source_code\driver_files\" -I "D:\Dheeraj\New folder\0.
//        GDEV72 - BootCode\source_code\library_files\" -I "D:\Dheeraj\New
//        folder\0. GDEV72 - BootCode\source_code\misc_files\" -I
//        "D:\Dheeraj\New folder\0. GDEV72 -
//        BootCode\source_code\source_files\" --data_model near)
//    Locale             =  C
//    List file          =
//        D:\Dheeraj\New folder\0. GDEV72 - BootCode\Debug\List\metrology.s
//
///////////////////////////////////////////////////////////////////////////////

        RTMODEL "__SystemLibrary", "DLib"
        RTMODEL "__calling_convention", "v2"
        RTMODEL "__code_model", "near"
        RTMODEL "__core", "s3"
        RTMODEL "__data_model", "near"
        RTMODEL "__dlib_file_descriptor", "0"
        RTMODEL "__dlib_version", "6"
        RTMODEL "__double_size", "32"
        RTMODEL "__far_rt_calls", "false"
        RTMODEL "__rt_version", "2"

        #define SHT_PROGBITS 0x1
        #define SHT_IAR_NOINIT 0xabdc5467
        #define SHF_WRITE 0x1

        EXTERN _cal_done_f
        EXTERN _thd
        EXTERN _flag_mag
        EXTERN _flag_cal
        EXTERN _flag_calibration
        EXTERN _opr_data
        EXTERN _flag_thd1
        EXTERN _flag_sleep
        EXTERN _utility_id
        EXTERN _flag_system1
        EXTERN _serial_no
        EXTERN _meter_type
        EXTERN _dlms_firm_ver
        EXTERN _active_calendar
        EXTERN _calendar_change_f
        EXTERN _slot_no
        EXTERN _tariff_index
        EXTERN _tariff_no
        EXTERN _eeblk
        EXTERN _eepg
        EXTERN ?FCMP_GE
        EXTERN ?FCMP_LT
        EXTERN ?F_ADD
        EXTERN ?F_DIV
        EXTERN ?F_F2SL
        EXTERN ?F_F2UL
        EXTERN ?F_MUL
        EXTERN ?F_SL2F
        EXTERN ?F_SUB
        EXTERN ?F_UL2F
        EXTERN ?L_MUL_FAST_L03
        EXTERN ?L_NEG_L03
        EXTERN ?L_NOT_L03
        EXTERN ?MOVE_LONG_L06
        EXTERN ?SL_DIV_L03
        EXTERN ?UC_DIV_L01
        EXTERN ?UC_MOD_L01
        EXTERN ?UL_CMP_L03
        EXTERN _CTR
        EXTERN _PTR
        EXTERN _R_ADC_Create
        EXTERN _R_ADC_Set_OperationOff
        EXTERN _R_ADC_Set_OperationOn
        EXTERN _R_ADC_Set_PowerOff
        EXTERN _R_ADC_Start
        EXTERN _R_ADC_Stop
        EXTERN _R_DSADC_Create
        EXTERN _R_DSADC_Set_OperationOff
        EXTERN _R_DSADC_Set_OperationOn
        EXTERN _R_DSADC_Set_PowerOff
        EXTERN _R_DSADC_Start
        EXTERN _R_DSADC_Stop
        EXTERN _R_DTCD0_Start
        EXTERN _R_DTCD0_Stop
        EXTERN _R_DTCD1_Start
        EXTERN _R_DTCD1_Stop
        EXTERN _R_DTC_Create
        EXTERN _R_DTC_Set_PowerOff
        EXTERN _R_ELC_Create
        EXTERN _R_ELC_Set
        EXTERN _R_ELC_Stop
        EXTERN _R_TAU0_Channel1_SetValue
        EXTERN _R_TAU0_Channel1_Start
        EXTERN _R_TAU0_Channel1_Stop
        EXTERN _R_TAU0_Create
        EXTERN _R_WDT_Restart
        EXTERN __Add64
        EXTERN __CmpGes64
        EXTERN __CmpGeu64
        EXTERN __CmpLtu64
        EXTERN __CmpNe64
        EXTERN __Divs64
        EXTERN __Divu64
        EXTERN __F2LLU
        EXTERN __L2LLS
        EXTERN __L2LLU
        EXTERN __LLS2L
        EXTERN __LLU2F
        EXTERN __LLU2L
        EXTERN __Mul64
        EXTERN __Neg64
        EXTERN __Not64
        EXTERN __Sub64
        EXTERN ___iar_fmex
        EXTERN _acos
        EXTERN _asin
        EXTERN _atan
        EXTERN _battery_vol_cnt
        EXTERN _battery_voltage
        EXTERN _cal_BPh
        EXTERN _cal_RPh
        EXTERN _cal_YPh
        EXTERN _cal_angle_calculate_act
        EXTERN _calibration_delay_voltage_samples
        EXTERN _char_array_to_int
        EXTERN _char_array_to_long4
        EXTERN _check_active_calendar
        EXTERN _cos
        EXTERN _delay_us
        EXTERN _deter_season
        EXTERN _eprom_read
        EXTERN _eprom_write
        EXTERN _fill_oprzero
        EXTERN _flag_battery
        EXTERN _int_into_char_array
        EXTERN _long_into_char_array4
        EXTERN _mac_union_2int
        EXTERN _mac_union_4int
        EXTERN _read_battery_voltage
        EXTERN _sin
        EXTERN _sleep_action_early_detection
        EXTERN _sqrt
        EXTERN _t_zkvah1
        EXTERN _t_zkvah2
        EXTERN _t_zkwh1
        EXTERN _t_zkwh2
        EXTERN _temp_s64
        EXTERN _temp_us16
        EXTERN _temp_us64
        EXTERN _ten_power
        EXTERN _thd_accumulation
        EXTERN _thd_one_sec_loop
        EXTERN _tpr
        EXTERN _vector_addition_2byte
        EXTERN _zone_pf

        PUBLIC _ACT_THRESHOLD
        PUBLIC _APP_THRESHOLD
        PUBLIC _METERING_MODE
        PUBLIC _PULSE_WEIGHT_TABLE
        PUBLIC _REACT_THRESHOLD
        PUBLIC __A_MAC32SH
        PUBLIC __A_MAC32SL
        PUBLIC __A_MACRH
        PUBLIC __A_MACRL
        PUBLIC __A_MULBH
        PUBLIC __A_MULBL
        PUBLIC __A_MULC
        PUBLIC __A_MULR0
        PUBLIC __A_MULR1
        PUBLIC __A_MULR2
        PUBLIC __A_MULR3
        PUBLIC __A_P4
        PUBLIC __A_P5
        PUBLIC __Constant_0_0
        PUBLIC __Constant_12_0
        PUBLIC __Constant_186a0_0
        PUBLIC __Constant_1_0
        PUBLIC __Constant_3e8_0
        PUBLIC __Constant_64_0
        PUBLIC __Constant_a_0
        PUBLIC __ZZ19zerocross_detectionE15b_zc_check_cntr
        PUBLIC __ZZ19zerocross_detectionE15r_zc_check_cntr
        PUBLIC __ZZ19zerocross_detectionE15y_zc_check_cntr
        PUBLIC __ZZ19zerocross_detectionE19zc_power_fail_timer
        PUBLIC __ZZ21delay_voltage_samplesE10buffer_ptr
        PUBLIC __ZZ21delay_voltage_samplesE11buffer_volb
        PUBLIC __ZZ21delay_voltage_samplesE11buffer_volr
        PUBLIC __ZZ21delay_voltage_samplesE11buffer_voly
        PUBLIC __ZZ21delay_voltage_samplesE12buffer_ptr90
        PUBLIC __ZZ21delay_voltage_samplesE13buffer_volb90
        PUBLIC __ZZ21delay_voltage_samplesE13buffer_volr90
        PUBLIC __ZZ21delay_voltage_samplesE13buffer_voly90
        PUBLIC _active_calculation_fwd
        PUBLIC _active_calculation_net
        PUBLIC _all_phase
        PUBLIC _alt_energy_save_cntr
        PUBLIC _alternate_energy_counter1
        PUBLIC _alternate_energy_counter2
        PUBLIC _angle
        PUBLIC _apparent_calculation_fwd
        PUBLIC _apparent_calculation_net
        PUBLIC _b_phase
        PUBLIC _cal_angle
        PUBLIC _cal_coeff
        PUBLIC _cal_neu_current
        PUBLIC _cal_pf
        PUBLIC _cal_pf_signed
        PUBLIC _calculate_irms
        PUBLIC _calculate_vrms
        PUBLIC _change_active_delay_buffer_par
        PUBLIC _config_parameter_init
        PUBLIC _curr
        PUBLIC _decimal
        PUBLIC _delay_voltage_samples
        PUBLIC _demand
        PUBLIC _duplicate_total_apparent_energy
        PUBLIC _e2416_byte
        PUBLIC _e2416_q2_byte
        PUBLIC _energy
        PUBLIC _energy_clear
        PUBLIC _energy_rollover_count
        PUBLIC _flag_metro1
        PUBLIC _flag_metro2
        PUBLIC _flag_metro3
        PUBLIC _flag_metrology
        PUBLIC _flag_metrology1
        PUBLIC _flag_quadrant
        PUBLIC _flag_zc
        PUBLIC _freq
        PUBLIC _freq_variation_timer_update
        PUBLIC _get_hr_energy
        PUBLIC _get_quadrant
        PUBLIC _last_energy_mag
        PUBLIC _last_energy_mag_Bph
        PUBLIC _last_energy_mag_Rph
        PUBLIC _last_energy_mag_Yph
        PUBLIC _metrology_1sec_loop
        PUBLIC _metrology_all_phase_calculation
        PUBLIC _metrology_function
        PUBLIC _metrology_process
        PUBLIC _metrology_ram_init
        PUBLIC _metrology_save_energy
        PUBLIC _metrology_save_pulse
        PUBLIC _metrology_setup
        PUBLIC _metrology_start
        PUBLIC _metrology_stop
        PUBLIC _n_phase
        PUBLIC _pf
        PUBLIC _ph_ph
        PUBLIC _power
        PUBLIC _power_filter
        PUBLIC _pwrup_sec_cnt
        PUBLIC _quadrant
        PUBLIC _r_phase
        PUBLIC _r_samp_issue_f
        PUBLIC _react_sample_delay
        PUBLIC _react_time_delay
        PUBLIC _reactive_calculation_fwd
        PUBLIC _reactive_calculation_net
        PUBLIC _rollover
        PUBLIC _rollover_energy
        PUBLIC _samples_per_sec
        PUBLIC _samples_per_sec_temp
        PUBLIC _save_all_energy_and_pulse
        PUBLIC _save_energy_alternate
        PUBLIC _temp_apparent_energy
        PUBLIC _temp_reactive_lead_energy
        PUBLIC _time_delay
        PUBLIC _time_deviation
        PUBLIC _timer_value
        PUBLIC _tod_init
        PUBLIC _vol
        PUBLIC _y_phase
        PUBLIC _zerocross_detection
        
          CFI Names cfiNames0
          CFI StackFrame CFA SP NEARDATA
          CFI Resource A:8, X:8, B:8, C:8, D:8, E:8, H:8, L:8, CS_REG:4, ES_REG:4
          CFI VirtualResource ?RET:20
          CFI Resource MACRH:16, MACRL:16, W0:8, W1:8, W2:8, W3:8, W4:8, W5:8
          CFI Resource W6:8, W7:8, W8:8, W9:8, W10:8, W11:8, W12:8, W13:8, W14:8
          CFI Resource W15:8, W16:8, W17:8, W18:8, W19:8, W20:8, W21:8, W22:8
          CFI Resource W23:8, W24:8, W25:8, W26:8, W27:8, W28:8, W29:8, W30:8
          CFI Resource W31:8, W32:8, W33:8, W34:8, W35:8, W36:8, W37:8, W38:8
          CFI Resource W39:8, W40:8, W41:8, W42:8, W43:8, W44:8, W45:8, W46:8
          CFI Resource W47:8, W48:8, W49:8, W50:8, W51:8, W52:8, W53:8, W54:8
          CFI Resource W55:8, W56:8, W57:8, W58:8, W59:8, W60:8, W61:8, W62:8
          CFI Resource W63:8, W64:8, W65:8, W66:8, W67:8, W68:8, W69:8, W70:8
          CFI Resource W71:8, W72:8, W73:8, W74:8, W75:8, W76:8, W77:8, W78:8
          CFI Resource W79:8, W80:8, W81:8, W82:8, W83:8, W84:8, W85:8, W86:8
          CFI Resource W87:8, W88:8, W89:8, W90:8, W91:8, W92:8, W93:8, W94:8
          CFI Resource W95:8, W96:8, W97:8, W98:8, W99:8, W100:8, W101:8, W102:8
          CFI Resource W103:8, W104:8, W105:8, W106:8, W107:8, W108:8, W109:8
          CFI Resource W110:8, W111:8, W112:8, W113:8, W114:8, W115:8, W116:8
          CFI Resource W117:8, W118:8, W119:8, W120:8, W121:8, W122:8, W123:8
          CFI Resource W124:8, W125:8, W126:8, W127:8, SP:16, ?SPH:4
          CFI EndNames cfiNames0
        
          CFI Common cfiCommon0 Using cfiNames0
          CFI CodeAlign 1
          CFI DataAlign 1
          CFI ReturnAddress ?RET CODE
          CFI CFA SP+4
          CFI A Undefined
          CFI X Undefined
          CFI B SameValue
          CFI C SameValue
          CFI D SameValue
          CFI E SameValue
          CFI H Undefined
          CFI L Undefined
          CFI CS_REG Undefined
          CFI ES_REG Undefined
          CFI ?RET Frame(CFA, -4)
          CFI MACRH Undefined
          CFI MACRL Undefined
          CFI W0 SameValue
          CFI W1 SameValue
          CFI W2 SameValue
          CFI W3 SameValue
          CFI W4 SameValue
          CFI W5 SameValue
          CFI W6 SameValue
          CFI W7 SameValue
          CFI W8 SameValue
          CFI W9 SameValue
          CFI W10 SameValue
          CFI W11 SameValue
          CFI W12 SameValue
          CFI W13 SameValue
          CFI W14 SameValue
          CFI W15 SameValue
          CFI W16 SameValue
          CFI W17 SameValue
          CFI W18 SameValue
          CFI W19 SameValue
          CFI W20 SameValue
          CFI W21 SameValue
          CFI W22 SameValue
          CFI W23 SameValue
          CFI W24 SameValue
          CFI W25 SameValue
          CFI W26 SameValue
          CFI W27 SameValue
          CFI W28 SameValue
          CFI W29 SameValue
          CFI W30 SameValue
          CFI W31 SameValue
          CFI W32 SameValue
          CFI W33 SameValue
          CFI W34 SameValue
          CFI W35 SameValue
          CFI W36 SameValue
          CFI W37 SameValue
          CFI W38 SameValue
          CFI W39 SameValue
          CFI W40 SameValue
          CFI W41 SameValue
          CFI W42 SameValue
          CFI W43 SameValue
          CFI W44 SameValue
          CFI W45 SameValue
          CFI W46 SameValue
          CFI W47 SameValue
          CFI W48 SameValue
          CFI W49 SameValue
          CFI W50 SameValue
          CFI W51 SameValue
          CFI W52 SameValue
          CFI W53 SameValue
          CFI W54 SameValue
          CFI W55 SameValue
          CFI W56 SameValue
          CFI W57 SameValue
          CFI W58 SameValue
          CFI W59 SameValue
          CFI W60 SameValue
          CFI W61 SameValue
          CFI W62 SameValue
          CFI W63 SameValue
          CFI W64 SameValue
          CFI W65 SameValue
          CFI W66 SameValue
          CFI W67 SameValue
          CFI W68 SameValue
          CFI W69 SameValue
          CFI W70 SameValue
          CFI W71 SameValue
          CFI W72 SameValue
          CFI W73 SameValue
          CFI W74 SameValue
          CFI W75 SameValue
          CFI W76 SameValue
          CFI W77 SameValue
          CFI W78 SameValue
          CFI W79 SameValue
          CFI W80 SameValue
          CFI W81 SameValue
          CFI W82 SameValue
          CFI W83 SameValue
          CFI W84 SameValue
          CFI W85 SameValue
          CFI W86 SameValue
          CFI W87 SameValue
          CFI W88 SameValue
          CFI W89 SameValue
          CFI W90 SameValue
          CFI W91 SameValue
          CFI W92 SameValue
          CFI W93 SameValue
          CFI W94 SameValue
          CFI W95 SameValue
          CFI W96 SameValue
          CFI W97 SameValue
          CFI W98 SameValue
          CFI W99 SameValue
          CFI W100 SameValue
          CFI W101 SameValue
          CFI W102 SameValue
          CFI W103 SameValue
          CFI W104 SameValue
          CFI W105 SameValue
          CFI W106 SameValue
          CFI W107 SameValue
          CFI W108 SameValue
          CFI W109 SameValue
          CFI W110 SameValue
          CFI W111 SameValue
          CFI W112 SameValue
          CFI W113 SameValue
          CFI W114 SameValue
          CFI W115 SameValue
          CFI W116 SameValue
          CFI W117 SameValue
          CFI W118 SameValue
          CFI W119 SameValue
          CFI W120 SameValue
          CFI W121 SameValue
          CFI W122 SameValue
          CFI W123 SameValue
          CFI W124 SameValue
          CFI W125 SameValue
          CFI W126 SameValue
          CFI W127 SameValue
          CFI ?SPH Undefined
          CFI EndCommon cfiCommon0
        
        
          CFI Common cfiCommon1 Using cfiNames0
          CFI CodeAlign 1
          CFI DataAlign 1
          CFI ReturnAddress ?RET CODE
          CFI CFA SP+4
          CFI A Undefined
          CFI X Undefined
          CFI B Undefined
          CFI C Undefined
          CFI D Undefined
          CFI E Undefined
          CFI H Undefined
          CFI L Undefined
          CFI CS_REG Undefined
          CFI ES_REG Undefined
          CFI ?RET Frame(CFA, -4)
          CFI MACRH Undefined
          CFI MACRL Undefined
          CFI W0 SameValue
          CFI W1 SameValue
          CFI W2 SameValue
          CFI W3 SameValue
          CFI W4 SameValue
          CFI W5 SameValue
          CFI W6 SameValue
          CFI W7 SameValue
          CFI W8 SameValue
          CFI W9 SameValue
          CFI W10 SameValue
          CFI W11 SameValue
          CFI W12 SameValue
          CFI W13 SameValue
          CFI W14 SameValue
          CFI W15 SameValue
          CFI W16 SameValue
          CFI W17 SameValue
          CFI W18 SameValue
          CFI W19 SameValue
          CFI W20 SameValue
          CFI W21 SameValue
          CFI W22 SameValue
          CFI W23 SameValue
          CFI W24 SameValue
          CFI W25 SameValue
          CFI W26 SameValue
          CFI W27 SameValue
          CFI W28 SameValue
          CFI W29 SameValue
          CFI W30 SameValue
          CFI W31 SameValue
          CFI W32 SameValue
          CFI W33 SameValue
          CFI W34 SameValue
          CFI W35 SameValue
          CFI W36 SameValue
          CFI W37 SameValue
          CFI W38 SameValue
          CFI W39 SameValue
          CFI W40 SameValue
          CFI W41 SameValue
          CFI W42 SameValue
          CFI W43 SameValue
          CFI W44 SameValue
          CFI W45 SameValue
          CFI W46 SameValue
          CFI W47 SameValue
          CFI W48 SameValue
          CFI W49 SameValue
          CFI W50 SameValue
          CFI W51 SameValue
          CFI W52 SameValue
          CFI W53 SameValue
          CFI W54 SameValue
          CFI W55 SameValue
          CFI W56 SameValue
          CFI W57 SameValue
          CFI W58 SameValue
          CFI W59 SameValue
          CFI W60 SameValue
          CFI W61 SameValue
          CFI W62 SameValue
          CFI W63 SameValue
          CFI W64 SameValue
          CFI W65 SameValue
          CFI W66 SameValue
          CFI W67 SameValue
          CFI W68 SameValue
          CFI W69 SameValue
          CFI W70 SameValue
          CFI W71 SameValue
          CFI W72 SameValue
          CFI W73 SameValue
          CFI W74 SameValue
          CFI W75 SameValue
          CFI W76 SameValue
          CFI W77 SameValue
          CFI W78 SameValue
          CFI W79 SameValue
          CFI W80 SameValue
          CFI W81 SameValue
          CFI W82 SameValue
          CFI W83 SameValue
          CFI W84 SameValue
          CFI W85 SameValue
          CFI W86 SameValue
          CFI W87 SameValue
          CFI W88 SameValue
          CFI W89 SameValue
          CFI W90 SameValue
          CFI W91 SameValue
          CFI W92 SameValue
          CFI W93 SameValue
          CFI W94 SameValue
          CFI W95 SameValue
          CFI W96 SameValue
          CFI W97 SameValue
          CFI W98 SameValue
          CFI W99 SameValue
          CFI W100 SameValue
          CFI W101 SameValue
          CFI W102 SameValue
          CFI W103 SameValue
          CFI W104 SameValue
          CFI W105 SameValue
          CFI W106 SameValue
          CFI W107 SameValue
          CFI W108 SameValue
          CFI W109 SameValue
          CFI W110 SameValue
          CFI W111 SameValue
          CFI W112 SameValue
          CFI W113 SameValue
          CFI W114 SameValue
          CFI W115 SameValue
          CFI W116 SameValue
          CFI W117 SameValue
          CFI W118 SameValue
          CFI W119 SameValue
          CFI W120 SameValue
          CFI W121 SameValue
          CFI W122 SameValue
          CFI W123 SameValue
          CFI W124 SameValue
          CFI W125 SameValue
          CFI W126 SameValue
          CFI W127 SameValue
          CFI ?SPH Undefined
          CFI EndCommon cfiCommon1
        
        
          CFI Common cfiCommon2 Using cfiNames0
          CFI CodeAlign 1
          CFI DataAlign 1
          CFI ReturnAddress ?RET CODE
          CFI CFA SP+4
          CFI A Undefined
          CFI X Undefined
          CFI B Undefined
          CFI C Undefined
          CFI D SameValue
          CFI E SameValue
          CFI H Undefined
          CFI L Undefined
          CFI CS_REG Undefined
          CFI ES_REG Undefined
          CFI ?RET Frame(CFA, -4)
          CFI MACRH Undefined
          CFI MACRL Undefined
          CFI W0 SameValue
          CFI W1 SameValue
          CFI W2 SameValue
          CFI W3 SameValue
          CFI W4 SameValue
          CFI W5 SameValue
          CFI W6 SameValue
          CFI W7 SameValue
          CFI W8 SameValue
          CFI W9 SameValue
          CFI W10 SameValue
          CFI W11 SameValue
          CFI W12 SameValue
          CFI W13 SameValue
          CFI W14 SameValue
          CFI W15 SameValue
          CFI W16 SameValue
          CFI W17 SameValue
          CFI W18 SameValue
          CFI W19 SameValue
          CFI W20 SameValue
          CFI W21 SameValue
          CFI W22 SameValue
          CFI W23 SameValue
          CFI W24 SameValue
          CFI W25 SameValue
          CFI W26 SameValue
          CFI W27 SameValue
          CFI W28 SameValue
          CFI W29 SameValue
          CFI W30 SameValue
          CFI W31 SameValue
          CFI W32 SameValue
          CFI W33 SameValue
          CFI W34 SameValue
          CFI W35 SameValue
          CFI W36 SameValue
          CFI W37 SameValue
          CFI W38 SameValue
          CFI W39 SameValue
          CFI W40 SameValue
          CFI W41 SameValue
          CFI W42 SameValue
          CFI W43 SameValue
          CFI W44 SameValue
          CFI W45 SameValue
          CFI W46 SameValue
          CFI W47 SameValue
          CFI W48 SameValue
          CFI W49 SameValue
          CFI W50 SameValue
          CFI W51 SameValue
          CFI W52 SameValue
          CFI W53 SameValue
          CFI W54 SameValue
          CFI W55 SameValue
          CFI W56 SameValue
          CFI W57 SameValue
          CFI W58 SameValue
          CFI W59 SameValue
          CFI W60 SameValue
          CFI W61 SameValue
          CFI W62 SameValue
          CFI W63 SameValue
          CFI W64 SameValue
          CFI W65 SameValue
          CFI W66 SameValue
          CFI W67 SameValue
          CFI W68 SameValue
          CFI W69 SameValue
          CFI W70 SameValue
          CFI W71 SameValue
          CFI W72 SameValue
          CFI W73 SameValue
          CFI W74 SameValue
          CFI W75 SameValue
          CFI W76 SameValue
          CFI W77 SameValue
          CFI W78 SameValue
          CFI W79 SameValue
          CFI W80 SameValue
          CFI W81 SameValue
          CFI W82 SameValue
          CFI W83 SameValue
          CFI W84 SameValue
          CFI W85 SameValue
          CFI W86 SameValue
          CFI W87 SameValue
          CFI W88 SameValue
          CFI W89 SameValue
          CFI W90 SameValue
          CFI W91 SameValue
          CFI W92 SameValue
          CFI W93 SameValue
          CFI W94 SameValue
          CFI W95 SameValue
          CFI W96 SameValue
          CFI W97 SameValue
          CFI W98 SameValue
          CFI W99 SameValue
          CFI W100 SameValue
          CFI W101 SameValue
          CFI W102 SameValue
          CFI W103 SameValue
          CFI W104 SameValue
          CFI W105 SameValue
          CFI W106 SameValue
          CFI W107 SameValue
          CFI W108 SameValue
          CFI W109 SameValue
          CFI W110 SameValue
          CFI W111 SameValue
          CFI W112 SameValue
          CFI W113 SameValue
          CFI W114 SameValue
          CFI W115 SameValue
          CFI W116 SameValue
          CFI W117 SameValue
          CFI W118 SameValue
          CFI W119 SameValue
          CFI W120 SameValue
          CFI W121 SameValue
          CFI W122 SameValue
          CFI W123 SameValue
          CFI W124 SameValue
          CFI W125 SameValue
          CFI W126 SameValue
          CFI W127 SameValue
          CFI ?SPH Undefined
          CFI EndCommon cfiCommon2
        
// D:\Dheeraj\New folder\0. GDEV72 - BootCode\source_code\source_files\metrology.c
//    1 /***********************************************************************************************************************
//    2 * File Name       : metrology.c
//    3 * Current Version : rev_  
//    4 * Tool-Chain      : IAR Systems
//    5 * Description     : This file include routines to implement metrology functionality into energy meter
//    6 * Creation Date   : 04-01-2020
//    7 * Company         : Genus Power Infrastructures Limited, Jaipur
//    8 * Author          : dheeraj.singhal
//    9 * Version History : 
//   10 ***********************************************************************************************************************/
//   11 /************************************ Includes **************************************/
//   12 #include "metrology.h"

        ASEGN `.sbss.noinit`:DATA:NOROOT,0fff04H
        SECTION_TYPE SHT_IAR_NOINIT, SHF_WRITE
        SECTION_GROUP __A_P4
// __no_init union <unnamed>#7 volatile __saddr _A_P4
__A_P4:
        DS 1

        ASEGN `.sbss.noinit`:DATA:NOROOT,0fff05H
        SECTION_TYPE SHT_IAR_NOINIT, SHF_WRITE
        SECTION_GROUP __A_P5
// __no_init union <unnamed>#8 volatile __saddr _A_P5
__A_P5:
        DS 1

        ASEGN `.bss.noinit`:DATA:NOROOT,0fff3cH
        SECTION_TYPE SHT_IAR_NOINIT, SHF_WRITE
        SECTION_GROUP __A_MULBL
// __no_init union <unnamed>#58 volatile __sfr __no_bit_access _A_MULBL
__A_MULBL:
        DS 2

        ASEGN `.bss.noinit`:DATA:NOROOT,0fff3eH
        SECTION_TYPE SHT_IAR_NOINIT, SHF_WRITE
        SECTION_GROUP __A_MULBH
// __no_init union <unnamed>#59 volatile __sfr __no_bit_access _A_MULBH
__A_MULBH:
        DS 2

        ASEGN `.bss.noinit`:DATA:NOROOT,0ffff0H
        SECTION_TYPE SHT_IAR_NOINIT, SHF_WRITE
        SECTION_GROUP __A_MACRL
// __no_init union <unnamed>#224 volatile __sfr __no_bit_access _A_MACRL
__A_MACRL:
        DS 2

        ASEGN `.bss.noinit`:DATA:NOROOT,0ffff2H
        SECTION_TYPE SHT_IAR_NOINIT, SHF_WRITE
        SECTION_GROUP __A_MACRH
// __no_init union <unnamed>#225 volatile __sfr __no_bit_access _A_MACRH
__A_MACRH:
        DS 2

        ASEGN `.bss.noinit`:DATA:NOROOT,0f028cH
        SECTION_TYPE SHT_IAR_NOINIT, SHF_WRITE
        SECTION_GROUP __A_MAC32SL
// __no_init union <unnamed>#501 volatile __no_bit_access _A_MAC32SL
__A_MAC32SL:
        DS 2

        ASEGN `.bss.noinit`:DATA:NOROOT,0f028eH
        SECTION_TYPE SHT_IAR_NOINIT, SHF_WRITE
        SECTION_GROUP __A_MAC32SH
// __no_init union <unnamed>#502 volatile __no_bit_access _A_MAC32SH
__A_MAC32SH:
        DS 2

        ASEGN `.bss.noinit`:DATA:NOROOT,0f0290H
        SECTION_TYPE SHT_IAR_NOINIT, SHF_WRITE
        SECTION_GROUP __A_MULR0
// __no_init union <unnamed>#503 volatile __no_bit_access _A_MULR0
__A_MULR0:
        DS 2

        ASEGN `.bss.noinit`:DATA:NOROOT,0f0292H
        SECTION_TYPE SHT_IAR_NOINIT, SHF_WRITE
        SECTION_GROUP __A_MULR1
// __no_init union <unnamed>#504 volatile __no_bit_access _A_MULR1
__A_MULR1:
        DS 2

        ASEGN `.bss.noinit`:DATA:NOROOT,0f0294H
        SECTION_TYPE SHT_IAR_NOINIT, SHF_WRITE
        SECTION_GROUP __A_MULR2
// __no_init union <unnamed>#505 volatile __no_bit_access _A_MULR2
__A_MULR2:
        DS 2

        ASEGN `.bss.noinit`:DATA:NOROOT,0f0296H
        SECTION_TYPE SHT_IAR_NOINIT, SHF_WRITE
        SECTION_GROUP __A_MULR3
// __no_init union <unnamed>#506 volatile __no_bit_access _A_MULR3
__A_MULR3:
        DS 2

        ASEGN `.bss.noinit`:DATA:NOROOT,0f029aH
        SECTION_TYPE SHT_IAR_NOINIT, SHF_WRITE
        SECTION_GROUP __A_MULC
// __no_init union <unnamed>#507 volatile _A_MULC
__A_MULC:
        DS 1
//   13 #include "r_cg_dsadc.h"
//   14 #include "r_cg_elc.h"
//   15 #include "r_cg_adc.h"
//   16 #include "r_cg_dtc.h"
//   17 #include "r_cg_tau.h"
//   18 #include "r_cg_mac32bit.h"
//   19 /************************************ Local Variables *****************************************/
//   20 
//   21 
//   22 #if METER_CONST == 1200

        SECTION `.data`:DATA:REORDER:NOROOT(1)
//   23 const us16 PULSE_WEIGHT_TABLE[6] = {0,833,1666,2500,3333,4166};
_PULSE_WEIGHT_TABLE:
        DATA16
        DW 0, 833, 1'666, 2'500, 3'333, 4'166

        SECTION `.data`:DATA:REORDER:NOROOT(1)
        SECTION_GROUP __Constant_0_0
__Constant_0_0:
        DATA32
        DD 0, 0

        SECTION `.data`:DATA:REORDER:NOROOT(1)
        SECTION_GROUP __Constant_1_0
__Constant_1_0:
        DATA32
        DD 1, 0

        SECTION `.data`:DATA:REORDER:NOROOT(1)
        SECTION_GROUP __Constant_a_0
__Constant_a_0:
        DATA32
        DD 10, 0

        SECTION `.data`:DATA:REORDER:NOROOT(1)
        SECTION_GROUP __Constant_64_0
__Constant_64_0:
        DATA32
        DD 100, 0

        SECTION `.data`:DATA:REORDER:NOROOT(1)
        SECTION_GROUP __Constant_186a0_0
__Constant_186a0_0:
        DATA32
        DD 100'000, 0

        SECTION `.data`:DATA:REORDER:NOROOT(1)
        SECTION_GROUP __Constant_12_0
__Constant_12_0:
        DATA32
        DD 18, 0

        SECTION `.data`:DATA:REORDER:NOROOT(1)
        SECTION_GROUP __Constant_3e8_0
__Constant_3e8_0:
        DATA32
        DD 1'000, 0
//   24 #elif METER_CONST == 600
//   25 const us16 PULSE_WEIGHT_TABLE[6] = {0,600,1200,1800,2400,3000};
//   26 #else
//   27 const us16 PULSE_WEIGHT_TABLE[6] = {0,1000,2000,3000,4000,5000};
//   28 #endif
//   29 
//   30 /************************************ Extern Variables *****************************************/

        SECTION `.bss`:DATA:REORDER:NOROOT(0)
//   31 flag_union flag_metrology,flag_metrology1, flag_metro1, flag_metro2, flag_metro3;
_flag_metrology:
        DS 1

        SECTION `.bss`:DATA:REORDER:NOROOT(0)
_flag_metrology1:
        DS 1

        SECTION `.bss`:DATA:REORDER:NOROOT(0)
_flag_metro1:
        DS 1

        SECTION `.bss`:DATA:REORDER:NOROOT(0)
_flag_metro2:
        DS 1

        SECTION `.bss`:DATA:REORDER:NOROOT(0)
_flag_metro3:
        DS 1

        SECTION `.bss`:DATA:REORDER:NOROOT(0)
//   32 flag_union flag_quadrant;
_flag_quadrant:
        DS 1

        SECTION `.bss`:DATA:REORDER:NOROOT(0)
//   33 flag_union flag_zc;
_flag_zc:
        DS 1

        SECTION `.bss`:DATA:REORDER:NOROOT(0)
//   34 Decimal decimal;
_decimal:
        DS 9

        SECTION `.bss`:DATA:REORDER:NOROOT(1)
//   35 Voltage vol;
_vol:
        DS 24

        SECTION `.bss`:DATA:REORDER:NOROOT(1)
//   36 Current curr;
_curr:
        DS 84

        SECTION `.bss`:DATA:REORDER:NOROOT(1)
//   37 PF pf;
_pf:
        DS 24

        SECTION `.bss`:DATA:REORDER:NOROOT(0)
//   38 QUADRANT quadrant;
_quadrant:
        DS 4

        SECTION `.bss`:DATA:REORDER:NOROOT(1)
//   39 Frequency freq;
_freq:
        DS 10

        SECTION `.bss`:DATA:REORDER:NOROOT(1)
//   40 Angle angle;
_angle:
        DS 6

        SECTION `.bss`:DATA:REORDER:NOROOT(1)
//   41 PH_PH ph_ph;
_ph_ph:
        DS 24

        SECTION `.bss`:DATA:REORDER:NOROOT(1)
//   42 Power power;
_power:
        DS 96

        SECTION `.bss`:DATA:REORDER:NOROOT(1)
//   43 Energy energy;
_energy:
        DS 124

        SECTION `.bss`:DATA:REORDER:NOROOT(1)
//   44 Demand demand;
_demand:
        DS 216

        SECTION `.bss`:DATA:REORDER:NOROOT(1)
//   45 CALIBRATION cal_coeff;
_cal_coeff:
        DS 42
//   46 

        SECTION `.bss`:DATA:REORDER:NOROOT(1)
//   47 PHASES r_phase,y_phase,b_phase;
_r_phase:
        DS 208

        SECTION `.bss`:DATA:REORDER:NOROOT(1)
_y_phase:
        DS 208

        SECTION `.bss`:DATA:REORDER:NOROOT(1)
_b_phase:
        DS 208

        SECTION `.bss`:DATA:REORDER:NOROOT(1)
//   48 PHASES_N n_phase;
_n_phase:
        DS 34

        SECTION `.bss`:DATA:REORDER:NOROOT(1)
//   49 PHASES_ALL all_phase;
_all_phase:
        DS 136

        SECTION `.bss`:DATA:REORDER:NOROOT(1)
//   50 us16 samples_per_sec,samples_per_sec_temp;
_samples_per_sec:
        DS 2

        SECTION `.bss`:DATA:REORDER:NOROOT(1)
_samples_per_sec_temp:
        DS 2

        SECTION `.bss`:DATA:REORDER:NOROOT(0)
//   51 us8 METERING_MODE;
_METERING_MODE:
        DS 1

        SECTION `.bss`:DATA:REORDER:NOROOT(0)
//   52 us8 pwrup_sec_cnt;
_pwrup_sec_cnt:
        DS 1
//   53 
//   54 /* frequency variation */

        SECTION `.bss`:DATA:REORDER:NOROOT(0)
//   55 us8 react_sample_delay;
_react_sample_delay:
        DS 1

        SECTION `.bss`:DATA:REORDER:NOROOT(1)
//   56 float react_time_delay;
_react_time_delay:
        DS 4

        SECTION `.bss`:DATA:REORDER:NOROOT(0)
//   57 us8 r_samp_issue_f;
_r_samp_issue_f:
        DS 1

        SECTION `.bss`:DATA:REORDER:NOROOT(1)
//   58 us16 time_delay,time_deviation,timer_value;
_time_delay:
        DS 2

        SECTION `.bss`:DATA:REORDER:NOROOT(1)
_time_deviation:
        DS 2

        SECTION `.bss`:DATA:REORDER:NOROOT(1)
_timer_value:
        DS 2
//   59 
//   60 /* Energy Saving */

        SECTION `.bss`:DATA:REORDER:NOROOT(1)
//   61 us64 temp_apparent_energy,temp_reactive_lead_energy;
_temp_apparent_energy:
        DS 8

        SECTION `.bss`:DATA:REORDER:NOROOT(1)
_temp_reactive_lead_energy:
        DS 8

        SECTION `.bss`:DATA:REORDER:NOROOT(0)
//   62 us8 alt_energy_save_cntr;
_alt_energy_save_cntr:
        DS 1

        SECTION `.bss`:DATA:REORDER:NOROOT(0)
//   63 us8 energy_rollover_count;
_energy_rollover_count:
        DS 1

        SECTION `.bss`:DATA:REORDER:NOROOT(0)
//   64 us8 alternate_energy_counter1,alternate_energy_counter2;
_alternate_energy_counter1:
        DS 1

        SECTION `.bss`:DATA:REORDER:NOROOT(0)
_alternate_energy_counter2:
        DS 1
//   65 /* thresholds */

        SECTION `.bss`:DATA:REORDER:NOROOT(1)
//   66 us64 ACT_THRESHOLD,REACT_THRESHOLD,APP_THRESHOLD;
_ACT_THRESHOLD:
        DS 8

        SECTION `.bss`:DATA:REORDER:NOROOT(1)
_REACT_THRESHOLD:
        DS 8

        SECTION `.bss`:DATA:REORDER:NOROOT(1)
_APP_THRESHOLD:
        DS 8
//   67 

        SECTION `.bss`:DATA:REORDER:NOROOT(1)
//   68 us16 e2416_byte;
_e2416_byte:
        DS 2

        SECTION `.bss`:DATA:REORDER:NOROOT(0)
//   69 us8 e2416_q2_byte;
_e2416_q2_byte:
        DS 1

        SECTION `.bss`:DATA:REORDER:NOROOT(1)
//   70 us32 duplicate_total_apparent_energy;
_duplicate_total_apparent_energy:
        DS 4

        SECTION `.bss`:DATA:REORDER:NOROOT(1)
//   71 us32 last_energy_mag,last_energy_mag_Rph,last_energy_mag_Yph,last_energy_mag_Bph;
_last_energy_mag:
        DS 4

        SECTION `.bss`:DATA:REORDER:NOROOT(1)
_last_energy_mag_Rph:
        DS 4

        SECTION `.bss`:DATA:REORDER:NOROOT(1)
_last_energy_mag_Yph:
        DS 4

        SECTION `.bss`:DATA:REORDER:NOROOT(1)
_last_energy_mag_Bph:
        DS 4
//   72 
//   73 /************************************ Local Functions *******************************/
//   74 void active_calculation_net(us8 phase,us8 quad);
//   75 void active_calculation_fwd(us8 phase,us8 quad);
//   76 void reactive_calculation_net(us8 phase,us8 quad);
//   77 void reactive_calculation_fwd(us8 phase,us8 quad);
//   78 void apparent_calculation_net(us8 phase,us8 quad);
//   79 void apparent_calculation_fwd(us8 phase,us8 quad);
//   80 void delay_voltage_samples();
//   81 s16 cal_angle(us32 active_power,us32 reactive_power,us32 apparent_power,us8 active_f, us8 reactive_f, us8 trig);
//   82 us16 cal_pf(us32 active_power,us32 apparent_power);
//   83 s16 cal_pf_signed(s32 active_power,s32 apparent_power);
//   84 void freq_variation_timer_update();
//   85 void change_active_delay_buffer_par(us16 freq);
//   86 us32 calculate_irms(us64 acc_cnt, us16 cal_coeff, us16 no_of_samples);
//   87 us16 calculate_vrms(us64 acc_cnt, us16 cal_coeff, us16 no_of_samples);
//   88 void zerocross_detection();
//   89 us8 get_quadrant(us8 act_flag, us8 react_flag);
//   90 /************************************ Extern Functions ******************************/
//   91 void metrology_setup();
//   92 void metrology_start();
//   93 void metrology_stop();
//   94 void metrology_function();
//   95 void metrology_process();
//   96 void metrology_save_energy();
//   97 void save_all_energy_and_pulse();
//   98 void metrology_save_pulse();
//   99 void metrology_1sec_loop();
//  100 us64 get_hr_energy(us32 energy,us8 pulse);
//  101 us32 cal_neu_current();
//  102 void metrology_ram_init();
//  103 void metrology_all_phase_calculation();
//  104 void save_energy_alternate();
//  105 void tod_init();
//  106 void config_parameter_init();
//  107 void energy_clear();
//  108 void rollover();
//  109 us32 rollover_energy(us32 energy);
//  110 us32 power_filter(us32 power1, us8 counter);
//  111 

        SECTION `.text`:CODE:NOROOT(0)
          CFI Block cfiBlock0 Using cfiCommon0
          CFI Function _metrology_setup
          CFI FunCall _read_battery_voltage
        CODE
//  112 void metrology_setup()
//  113 {
_metrology_setup:
        ; * Stack frame (at entry) *
        ; Param size: 0
        ; Auto size: 0
//  114     /* Checking battery voltage */
//  115     
//  116     battery_vol_cnt = read_battery_voltage();
        CALL      _read_battery_voltage  ;; 3 cycles
        MOVW      N:_battery_vol_cnt, AX  ;; 1 cycle
//  117     if(battery_installed == TEKCELL)
        MOVW      HL, #LWRD(_flag_battery)  ;; 1 cycle
        MOV1      CY, [HL].2         ;; 1 cycle
        BC        ??power_filter_0   ;; 4 cycles
        ; ------------------------------------- Block: 10 cycles
//  118     {
//  119         if(battery_vol_cnt <= 15)
        MOVW      AX, N:_battery_vol_cnt  ;; 1 cycle
        CMPW      AX, #0x10          ;; 1 cycle
        BNC       ??power_filter_1   ;; 4 cycles
        ; ------------------------------------- Block: 6 cycles
//  120         {
//  121             battery_voltage = 0;
        MOVW      AX, #0x0           ;; 1 cycle
        MOVW      N:_battery_voltage, AX  ;; 1 cycle
        BR        S:??power_filter_2  ;; 3 cycles
        ; ------------------------------------- Block: 5 cycles
//  122         }
//  123         else 
//  124         {
//  125             battery_voltage = (us16)((float)0.464396f*battery_vol_cnt-6.62539f);
??power_filter_1:
        MOVW      AX, #0xC0D4        ;; 1 cycle
        PUSH      AX                 ;; 1 cycle
          CFI CFA SP+6
        MOVW      AX, #0x332         ;; 1 cycle
        PUSH      AX                 ;; 1 cycle
          CFI CFA SP+8
        MOVW      AX, #0x3EED        ;; 1 cycle
        PUSH      AX                 ;; 1 cycle
          CFI CFA SP+10
        MOVW      AX, #0xC550        ;; 1 cycle
        PUSH      AX                 ;; 1 cycle
          CFI CFA SP+12
        MOVW      AX, N:_battery_vol_cnt  ;; 1 cycle
        MOVW      BC, #0x0           ;; 1 cycle
          CFI FunCall ?F_UL2F
        CALL      N:?F_UL2F          ;; 3 cycles
          CFI FunCall ?F_MUL
        CALL      N:?F_MUL           ;; 3 cycles
        ADDW      SP, #0x4           ;; 1 cycle
          CFI CFA SP+8
          CFI FunCall ?F_ADD
        CALL      N:?F_ADD           ;; 3 cycles
          CFI FunCall ?F_F2SL
        CALL      N:?F_F2SL          ;; 3 cycles
        MOVW      N:_battery_voltage, AX  ;; 1 cycle
        ADDW      SP, #0x4           ;; 1 cycle
          CFI CFA SP+4
        BR        S:??power_filter_2  ;; 3 cycles
        ; ------------------------------------- Block: 28 cycles
//  126         }
//  127     }
//  128     else
//  129     {
//  130         if(battery_vol_cnt <= 37)
??power_filter_0:
        MOVW      AX, N:_battery_vol_cnt  ;; 1 cycle
        CMPW      AX, #0x26          ;; 1 cycle
        BNC       ??power_filter_3   ;; 4 cycles
        ; ------------------------------------- Block: 6 cycles
//  131         {
//  132             battery_voltage = 0;
        MOVW      AX, #0x0           ;; 1 cycle
        MOVW      N:_battery_voltage, AX  ;; 1 cycle
        BR        S:??power_filter_2  ;; 3 cycles
        ; ------------------------------------- Block: 5 cycles
//  133         }
//  134         else 
//  135         {
//  136             battery_voltage = (us16)((float)0.460829f*battery_vol_cnt-16.8664f);
??power_filter_3:
        MOVW      AX, #0xC186        ;; 1 cycle
        PUSH      AX                 ;; 1 cycle
          CFI CFA SP+6
        MOVW      AX, #0xEE63        ;; 1 cycle
        PUSH      AX                 ;; 1 cycle
          CFI CFA SP+8
        MOVW      AX, #0x3EEB        ;; 1 cycle
        PUSH      AX                 ;; 1 cycle
          CFI CFA SP+10
        MOVW      AX, #0xF1C7        ;; 1 cycle
        PUSH      AX                 ;; 1 cycle
          CFI CFA SP+12
        MOVW      AX, N:_battery_vol_cnt  ;; 1 cycle
        MOVW      BC, #0x0           ;; 1 cycle
          CFI FunCall ?F_UL2F
        CALL      N:?F_UL2F          ;; 3 cycles
          CFI FunCall ?F_MUL
        CALL      N:?F_MUL           ;; 3 cycles
        ADDW      SP, #0x4           ;; 1 cycle
          CFI CFA SP+8
          CFI FunCall ?F_ADD
        CALL      N:?F_ADD           ;; 3 cycles
          CFI FunCall ?F_F2SL
        CALL      N:?F_F2SL          ;; 3 cycles
        MOVW      N:_battery_voltage, AX  ;; 1 cycle
        ADDW      SP, #0x4           ;; 1 cycle
          CFI CFA SP+4
          CFI FunCall _R_TAU0_Create
        ; ------------------------------------- Block: 25 cycles
//  137         }
//  138     }
//  139     
//  140     //lcd_write_msg(315,2);
//  141     /* Creating the relevent peripheral */
//  142     R_TAU0_Create();
??power_filter_2:
        CALL      _R_TAU0_Create     ;; 3 cycles
//  143     R_DSADC_Create();
          CFI FunCall _R_DSADC_Create
        CALL      _R_DSADC_Create    ;; 3 cycles
//  144     R_ADC_Create();
          CFI FunCall _R_ADC_Create
        CALL      _R_ADC_Create      ;; 3 cycles
//  145     R_DTC_Create();
          CFI FunCall _R_DTC_Create
        CALL      _R_DTC_Create      ;; 3 cycles
//  146     R_ELC_Create();
          CFI FunCall _R_ELC_Create
        CALL      _R_ELC_Create      ;; 3 cycles
//  147 }
        RET                          ;; 6 cycles
          CFI EndBlock cfiBlock0
        ; ------------------------------------- Block: 21 cycles
        ; ------------------------------------- Total: 106 cycles
//  148 

        SECTION `.text`:CODE:NOROOT(0)
          CFI Block cfiBlock1 Using cfiCommon0
          CFI Function _metrology_start
          CFI FunCall _R_WDT_Restart
        CODE
//  149 void metrology_start()
//  150 {
_metrology_start:
        ; * Stack frame (at entry) *
        ; Param size: 0
        ; Auto size: 0
//  151     wdt_restart();
        CALL      _R_WDT_Restart     ;; 3 cycles
//  152     
//  153     R_ELC_Set(ELC_TRIGGER_SRC_INTDSAD, _01_ELC_EVENT_LINK_AD);  /* triggering ADC conversion Active samples */
        MOV       X, #0x1            ;; 1 cycle
        MOV       A, #0x13           ;; 1 cycle
          CFI FunCall _R_ELC_Set
        CALL      _R_ELC_Set         ;; 3 cycles
//  154     R_ELC_Set(ELC_TRIGGER_SRC_INTTM01, _01_ELC_EVENT_LINK_AD);  /* triggering ADC conversion Reactive samples */
        MOV       X, #0x1            ;; 1 cycle
        MOV       A, #0xE            ;; 1 cycle
          CFI FunCall _R_ELC_Set
        CALL      _R_ELC_Set         ;; 3 cycles
//  155     
//  156     R_DTCD0_Start();                                            /* to transfer start bit in timer start register */
          CFI FunCall _R_DTCD0_Start
        CALL      _R_DTCD0_Start     ;; 3 cycles
//  157     R_DTCD1_Start();                                            /* transfering ADC result to ram variable */ 
          CFI FunCall _R_DTCD1_Start
        CALL      _R_DTCD1_Start     ;; 3 cycles
//  158     R_TAU0_Channel1_Start();
          CFI FunCall _R_TAU0_Channel1_Start
        CALL      _R_TAU0_Channel1_Start  ;; 3 cycles
//  159     R_ADC_Set_OperationOn();
          CFI FunCall _R_ADC_Set_OperationOn
        CALL      _R_ADC_Set_OperationOn  ;; 3 cycles
//  160     delay_us(5);
        MOVW      AX, #0x5           ;; 1 cycle
          CFI FunCall _delay_us
        CALL      _delay_us          ;; 3 cycles
//  161     R_ADC_Start();
          CFI FunCall _R_ADC_Start
        CALL      _R_ADC_Start       ;; 3 cycles
//  162     R_DSADC_Set_OperationOn();
          CFI FunCall _R_DSADC_Set_OperationOn
        CALL      _R_DSADC_Set_OperationOn  ;; 3 cycles
//  163     R_DSADC_Start();
          CFI FunCall _R_DSADC_Start
        CALL      _R_DSADC_Start     ;; 3 cycles
//  164     
//  165     react_sample_delay = 19;
        MOV       N:_react_sample_delay, #0x13  ;; 1 cycle
//  166 }
        RET                          ;; 6 cycles
          CFI EndBlock cfiBlock1
        ; ------------------------------------- Block: 45 cycles
        ; ------------------------------------- Total: 45 cycles
//  167 

        SECTION `.text`:CODE:NOROOT(0)
          CFI Block cfiBlock2 Using cfiCommon0
          CFI Function _metrology_stop
          CFI FunCall _R_DSADC_Stop
        CODE
//  168 void metrology_stop()
//  169 {
_metrology_stop:
        ; * Stack frame (at entry) *
        ; Param size: 0
        ; Auto size: 0
//  170     R_DSADC_Stop();
        CALL      _R_DSADC_Stop      ;; 3 cycles
//  171     R_DSADC_Set_OperationOff();
          CFI FunCall _R_DSADC_Set_OperationOff
        CALL      _R_DSADC_Set_OperationOff  ;; 3 cycles
//  172     R_DSADC_Set_PowerOff();
          CFI FunCall _R_DSADC_Set_PowerOff
        CALL      _R_DSADC_Set_PowerOff  ;; 3 cycles
//  173     R_ADC_Stop();
          CFI FunCall _R_ADC_Stop
        CALL      _R_ADC_Stop        ;; 3 cycles
//  174     R_ADC_Set_OperationOff();
          CFI FunCall _R_ADC_Set_OperationOff
        CALL      _R_ADC_Set_OperationOff  ;; 3 cycles
//  175     R_ADC_Set_PowerOff();
          CFI FunCall _R_ADC_Set_PowerOff
        CALL      _R_ADC_Set_PowerOff  ;; 3 cycles
//  176     delay_us(5);
        MOVW      AX, #0x5           ;; 1 cycle
          CFI FunCall _delay_us
        CALL      _delay_us          ;; 3 cycles
//  177     R_TAU0_Channel1_Stop();
          CFI FunCall _R_TAU0_Channel1_Stop
        CALL      _R_TAU0_Channel1_Stop  ;; 3 cycles
//  178     R_DTCD0_Stop();        
          CFI FunCall _R_DTCD0_Stop
        CALL      _R_DTCD0_Stop      ;; 3 cycles
//  179     R_DTCD1_Stop(); 
          CFI FunCall _R_DTCD1_Stop
        CALL      _R_DTCD1_Stop      ;; 3 cycles
//  180     R_DTC_Set_PowerOff();
          CFI FunCall _R_DTC_Set_PowerOff
        CALL      _R_DTC_Set_PowerOff  ;; 3 cycles
//  181     R_ELC_Stop(ELC_TRIGGER_SRC_INTDSAD);
        MOVW      AX, #0x13          ;; 1 cycle
        MOVW      BC, #0x0           ;; 1 cycle
          CFI FunCall _R_ELC_Stop
        CALL      _R_ELC_Stop        ;; 3 cycles
//  182     R_ELC_Stop(ELC_TRIGGER_SRC_INTTM01);
        MOVW      AX, #0xE           ;; 1 cycle
        MOVW      BC, #0x0           ;; 1 cycle
          CFI FunCall _R_ELC_Stop
        CALL      _R_ELC_Stop        ;; 3 cycles
//  183 }
        RET                          ;; 6 cycles
          CFI EndBlock cfiBlock2
        ; ------------------------------------- Block: 50 cycles
        ; ------------------------------------- Total: 50 cycles

        SECTION `.text`:CODE:NOROOT(0)
          CFI Block cfiBlock3 Using cfiCommon0
          CFI Function _metrology_function
        CODE
//  184 void metrology_function()
//  185 {
_metrology_function:
        ; * Stack frame (at entry) *
        ; Param size: 0
        ; Auto size: 0
//  186     static us8 dispense_ecal = 0u,dispense_rcal = 0u,two_ms_loop_cntr = 0;
//  187     static us16 bkup_macrh = 0;
//  188     static us16 bkup_macrl = 0;
//  189 #if DEBUG_MODE == 1
//  190         static us8 index = 0;
//  191 #endif
//  192     /* Push MACRx Registers */
//  193     bkup_macrh = MACRH;
        MOVW      AX, 0xFFFF2        ;; 1 cycle
        MOVW      N:`metrology_function::bkup_macrh`, AX  ;; 1 cycle
//  194     bkup_macrl = MACRL;
        MOVW      AX, 0xFFFF0        ;; 1 cycle
        MOVW      N:`metrology_function::bkup_macrl`, AX  ;; 1 cycle
//  195     
//  196     /* Meterology */
//  197     samples_per_sec_temp++;
        INCW      N:_samples_per_sec_temp  ;; 2 cycles
//  198     r_phase.no_of_samples_temp++;
        INCW      N:_r_phase+2       ;; 2 cycles
//  199     y_phase.no_of_samples_temp++;
        INCW      N:_y_phase+2       ;; 2 cycles
//  200     b_phase.no_of_samples_temp++;
        INCW      N:_b_phase+2       ;; 2 cycles
//  201     n_phase.no_of_samples_temp++;
        INCW      N:_n_phase+2       ;; 2 cycles
//  202     if(cal_done_f != 1)
        CMP       N:_cal_done_f, #0x1  ;; 1 cycle
        BZ        ??power_filter_4   ;; 4 cycles
        ; ------------------------------------- Block: 19 cycles
//  203     {
//  204         cal_RPh.no_of_samples_temp++;
        INCW      N:_cal_RPh+2       ;; 2 cycles
//  205         cal_YPh.no_of_samples_temp++;
        INCW      N:_cal_YPh+2       ;; 2 cycles
//  206         cal_BPh.no_of_samples_temp++;
        INCW      N:_cal_BPh+2       ;; 2 cycles
          CFI FunCall _delay_voltage_samples
        ; ------------------------------------- Block: 6 cycles
//  207     }
//  208     delay_voltage_samples();
??power_filter_4:
        CALL      _delay_voltage_samples  ;; 3 cycles
//  209     
//  210     /* calibration offset subtraction */
//  211     r_phase.curr.sample_raw -= cal_coeff.Rph.curr_offset;
        MOVW      AX, N:_r_phase+42  ;; 1 cycle
        SUBW      AX, N:_cal_coeff+4  ;; 1 cycle
        MOVW      N:_r_phase+42, AX  ;; 1 cycle
//  212     y_phase.curr.sample_raw -= cal_coeff.Yph.curr_offset;
        MOVW      AX, N:_y_phase+42  ;; 1 cycle
        SUBW      AX, N:_cal_coeff+16  ;; 1 cycle
        MOVW      N:_y_phase+42, AX  ;; 1 cycle
//  213     b_phase.curr.sample_raw -= cal_coeff.Bph.curr_offset;
        MOVW      AX, N:_b_phase+42  ;; 1 cycle
        SUBW      AX, N:_cal_coeff+28  ;; 1 cycle
        MOVW      N:_b_phase+42, AX  ;; 1 cycle
//  214     n_phase.curr.sample_raw -= cal_coeff.Nph.curr_offset;
        MOVW      AX, N:_n_phase+4   ;; 1 cycle
        SUBW      AX, N:_cal_coeff+38  ;; 1 cycle
        MOVW      N:_n_phase+4, AX   ;; 1 cycle
//  215     r_phase.vol.sample_raw -= cal_coeff.Rph.vol_offset;
        MOVW      AX, N:_r_phase+6   ;; 1 cycle
        SUBW      AX, N:_cal_coeff+2  ;; 1 cycle
        MOVW      N:_r_phase+6, AX   ;; 1 cycle
//  216     y_phase.vol.sample_raw -= cal_coeff.Yph.vol_offset;
        MOVW      AX, N:_y_phase+6   ;; 1 cycle
        SUBW      AX, N:_cal_coeff+14  ;; 1 cycle
        MOVW      N:_y_phase+6, AX   ;; 1 cycle
//  217     b_phase.vol.sample_raw -= cal_coeff.Bph.vol_offset;
        MOVW      AX, N:_b_phase+6   ;; 1 cycle
        SUBW      AX, N:_cal_coeff+26  ;; 1 cycle
        MOVW      N:_b_phase+6, AX   ;; 1 cycle
//  218     r_phase.vol.sample_raw90 -= cal_coeff.Rph.vol_offset;
        MOVW      AX, N:_r_phase+10  ;; 1 cycle
        SUBW      AX, N:_cal_coeff+2  ;; 1 cycle
        MOVW      N:_r_phase+10, AX  ;; 1 cycle
//  219     y_phase.vol.sample_raw90 -= cal_coeff.Yph.vol_offset;
        MOVW      AX, N:_y_phase+10  ;; 1 cycle
        SUBW      AX, N:_cal_coeff+14  ;; 1 cycle
        MOVW      N:_y_phase+10, AX  ;; 1 cycle
//  220     b_phase.vol.sample_raw90 -= cal_coeff.Bph.vol_offset;
        MOVW      AX, N:_b_phase+10  ;; 1 cycle
        SUBW      AX, N:_cal_coeff+26  ;; 1 cycle
        MOVW      N:_b_phase+10, AX  ;; 1 cycle
//  221     
//  222     /* dc offset calculation accumulation using raw sample*/
//  223     r_phase.curr.offset_acc_cnt_temp += r_phase.curr.sample_raw;
        MOVW      AX, N:_r_phase+42  ;; 1 cycle
        MOVW      BC, AX             ;; 1 cycle
        SARW      AX, 0xF            ;; 1 cycle
        XCHW      AX, BC             ;; 1 cycle
        MOVW      HL, N:_r_phase+54  ;; 1 cycle
        MOVW      DE, N:_r_phase+52  ;; 1 cycle
        ADDW      AX, DE             ;; 1 cycle
        SKNC
        INCW      BC                 ;; 5 cycles
        XCHW      AX, BC             ;; 1 cycle
        ADDW      AX, HL             ;; 1 cycle
        XCHW      AX, BC             ;; 1 cycle
        MOVW      N:_r_phase+52, AX  ;; 1 cycle
        XCHW      AX, BC             ;; 1 cycle
        MOVW      N:_r_phase+54, AX  ;; 1 cycle
        XCHW      AX, BC             ;; 1 cycle
//  224     y_phase.curr.offset_acc_cnt_temp += y_phase.curr.sample_raw;
        MOVW      AX, N:_y_phase+42  ;; 1 cycle
        MOVW      BC, AX             ;; 1 cycle
        SARW      AX, 0xF            ;; 1 cycle
        XCHW      AX, BC             ;; 1 cycle
        MOVW      HL, N:_y_phase+54  ;; 1 cycle
        MOVW      DE, N:_y_phase+52  ;; 1 cycle
        ADDW      AX, DE             ;; 1 cycle
        SKNC
        INCW      BC                 ;; 5 cycles
        XCHW      AX, BC             ;; 1 cycle
        ADDW      AX, HL             ;; 1 cycle
        XCHW      AX, BC             ;; 1 cycle
        MOVW      N:_y_phase+52, AX  ;; 1 cycle
        XCHW      AX, BC             ;; 1 cycle
        MOVW      N:_y_phase+54, AX  ;; 1 cycle
        XCHW      AX, BC             ;; 1 cycle
//  225     b_phase.curr.offset_acc_cnt_temp += b_phase.curr.sample_raw;
        MOVW      AX, N:_b_phase+42  ;; 1 cycle
        MOVW      BC, AX             ;; 1 cycle
        SARW      AX, 0xF            ;; 1 cycle
        XCHW      AX, BC             ;; 1 cycle
        MOVW      HL, N:_b_phase+54  ;; 1 cycle
        MOVW      DE, N:_b_phase+52  ;; 1 cycle
        ADDW      AX, DE             ;; 1 cycle
        SKNC
        INCW      BC                 ;; 5 cycles
        XCHW      AX, BC             ;; 1 cycle
        ADDW      AX, HL             ;; 1 cycle
        XCHW      AX, BC             ;; 1 cycle
        MOVW      N:_b_phase+52, AX  ;; 1 cycle
        XCHW      AX, BC             ;; 1 cycle
        MOVW      N:_b_phase+54, AX  ;; 1 cycle
        XCHW      AX, BC             ;; 1 cycle
//  226     n_phase.curr.offset_acc_cnt_temp += n_phase.curr.sample_raw;
        MOVW      AX, N:_n_phase+4   ;; 1 cycle
        MOVW      BC, AX             ;; 1 cycle
        SARW      AX, 0xF            ;; 1 cycle
        XCHW      AX, BC             ;; 1 cycle
        MOVW      HL, N:_n_phase+16  ;; 1 cycle
        MOVW      DE, N:_n_phase+14  ;; 1 cycle
        ADDW      AX, DE             ;; 1 cycle
        SKNC
        INCW      BC                 ;; 5 cycles
        XCHW      AX, BC             ;; 1 cycle
        ADDW      AX, HL             ;; 1 cycle
        XCHW      AX, BC             ;; 1 cycle
        MOVW      N:_n_phase+14, AX  ;; 1 cycle
        XCHW      AX, BC             ;; 1 cycle
        MOVW      N:_n_phase+16, AX  ;; 1 cycle
        XCHW      AX, BC             ;; 1 cycle
//  227     r_phase.vol.offset_acc_cnt_temp += r_phase.vol.sample_raw;
        MOVW      AX, N:_r_phase+6   ;; 1 cycle
        MOVW      BC, AX             ;; 1 cycle
        SARW      AX, 0xF            ;; 1 cycle
        XCHW      AX, BC             ;; 1 cycle
        MOVW      HL, N:_r_phase+24  ;; 1 cycle
        MOVW      DE, N:_r_phase+22  ;; 1 cycle
        ADDW      AX, DE             ;; 1 cycle
        SKNC
        INCW      BC                 ;; 5 cycles
        XCHW      AX, BC             ;; 1 cycle
        ADDW      AX, HL             ;; 1 cycle
        XCHW      AX, BC             ;; 1 cycle
        MOVW      N:_r_phase+22, AX  ;; 1 cycle
        XCHW      AX, BC             ;; 1 cycle
        MOVW      N:_r_phase+24, AX  ;; 1 cycle
        XCHW      AX, BC             ;; 1 cycle
//  228     y_phase.vol.offset_acc_cnt_temp += y_phase.vol.sample_raw;
        MOVW      AX, N:_y_phase+6   ;; 1 cycle
        MOVW      BC, AX             ;; 1 cycle
        SARW      AX, 0xF            ;; 1 cycle
        XCHW      AX, BC             ;; 1 cycle
        MOVW      HL, N:_y_phase+24  ;; 1 cycle
        MOVW      DE, N:_y_phase+22  ;; 1 cycle
        ADDW      AX, DE             ;; 1 cycle
        SKNC
        INCW      BC                 ;; 5 cycles
        XCHW      AX, BC             ;; 1 cycle
        ADDW      AX, HL             ;; 1 cycle
        XCHW      AX, BC             ;; 1 cycle
        MOVW      N:_y_phase+22, AX  ;; 1 cycle
        XCHW      AX, BC             ;; 1 cycle
        MOVW      N:_y_phase+24, AX  ;; 1 cycle
        XCHW      AX, BC             ;; 1 cycle
//  229     b_phase.vol.offset_acc_cnt_temp += b_phase.vol.sample_raw;
        MOVW      AX, N:_b_phase+6   ;; 1 cycle
        MOVW      BC, AX             ;; 1 cycle
        SARW      AX, 0xF            ;; 1 cycle
        XCHW      AX, BC             ;; 1 cycle
        MOVW      HL, N:_b_phase+24  ;; 1 cycle
        MOVW      DE, N:_b_phase+22  ;; 1 cycle
        ADDW      AX, DE             ;; 1 cycle
        SKNC
        INCW      BC                 ;; 5 cycles
        XCHW      AX, BC             ;; 1 cycle
        ADDW      AX, HL             ;; 1 cycle
        XCHW      AX, BC             ;; 1 cycle
        MOVW      N:_b_phase+22, AX  ;; 1 cycle
        XCHW      AX, BC             ;; 1 cycle
        MOVW      N:_b_phase+24, AX  ;; 1 cycle
        XCHW      AX, BC             ;; 1 cycle
//  230     
//  231     /* remove dc offset */
//  232     r_phase.curr.sample = r_phase.curr.sample_raw - r_phase.curr.dc_offset;
        MOVW      AX, N:_r_phase+42  ;; 1 cycle
        SUBW      AX, N:_r_phase+46  ;; 1 cycle
        MOVW      N:_r_phase+44, AX  ;; 1 cycle
//  233     y_phase.curr.sample = y_phase.curr.sample_raw - y_phase.curr.dc_offset;
        MOVW      AX, N:_y_phase+42  ;; 1 cycle
        SUBW      AX, N:_y_phase+46  ;; 1 cycle
        MOVW      N:_y_phase+44, AX  ;; 1 cycle
//  234     b_phase.curr.sample = b_phase.curr.sample_raw - b_phase.curr.dc_offset;
        MOVW      AX, N:_b_phase+42  ;; 1 cycle
        SUBW      AX, N:_b_phase+46  ;; 1 cycle
        MOVW      N:_b_phase+44, AX  ;; 1 cycle
//  235     n_phase.curr.sample = n_phase.curr.sample_raw - n_phase.curr.dc_offset;
        MOVW      AX, N:_n_phase+4   ;; 1 cycle
        SUBW      AX, N:_n_phase+8   ;; 1 cycle
        MOVW      N:_n_phase+6, AX   ;; 1 cycle
//  236     r_phase.vol.sample = r_phase.vol.sample_raw - r_phase.vol.dc_offset;
        MOVW      AX, N:_r_phase+6   ;; 1 cycle
        SUBW      AX, N:_r_phase+14  ;; 1 cycle
        MOVW      N:_r_phase+8, AX   ;; 1 cycle
//  237     y_phase.vol.sample = y_phase.vol.sample_raw - y_phase.vol.dc_offset;
        MOVW      AX, N:_y_phase+6   ;; 1 cycle
        SUBW      AX, N:_y_phase+14  ;; 1 cycle
        MOVW      N:_y_phase+8, AX   ;; 1 cycle
//  238     b_phase.vol.sample = b_phase.vol.sample_raw - b_phase.vol.dc_offset;
        MOVW      AX, N:_b_phase+6   ;; 1 cycle
        SUBW      AX, N:_b_phase+14  ;; 1 cycle
        MOVW      N:_b_phase+8, AX   ;; 1 cycle
//  239     r_phase.vol.sample90 = r_phase.vol.sample_raw90 - r_phase.vol.dc_offset;
        MOVW      AX, N:_r_phase+10  ;; 1 cycle
        SUBW      AX, N:_r_phase+14  ;; 1 cycle
        MOVW      N:_r_phase+12, AX  ;; 1 cycle
//  240     y_phase.vol.sample90 = y_phase.vol.sample_raw90 - y_phase.vol.dc_offset;
        MOVW      AX, N:_y_phase+10  ;; 1 cycle
        SUBW      AX, N:_y_phase+14  ;; 1 cycle
        MOVW      N:_y_phase+12, AX  ;; 1 cycle
//  241     b_phase.vol.sample90 = b_phase.vol.sample_raw90 - b_phase.vol.dc_offset;
        MOVW      AX, N:_b_phase+10  ;; 1 cycle
        SUBW      AX, N:_b_phase+14  ;; 1 cycle
        MOVW      N:_b_phase+12, AX  ;; 1 cycle
//  242     
//  243     zerocross_detection();
          CFI FunCall _zerocross_detection
        CALL      _zerocross_detection  ;; 3 cycles
//  244     
//  245     /* Calibration delayed samples*/
//  246     if(cal_done_f != 1)
        CMP       N:_cal_done_f, #0x1  ;; 1 cycle
        SKZ                          ;; 1 cycle
          CFI FunCall _calibration_delay_voltage_samples
        ; ------------------------------------- Block: 201 cycles
//  247     {
//  248         calibration_delay_voltage_samples();
        CALL      _calibration_delay_voltage_samples  ;; 3 cycles
        ; ------------------------------------- Block: 3 cycles
//  249     }
//  250     
//  251 #if DEBUG_MODE == 1
//  252     if(debug_data_zc_found == 1)
//  253     {
//  254         if(index < 157)
//  255         {
//  256            if(debug_data_type == '1')
//  257             {
//  258                 samples_vol[index] = r_phase.vol.sample;
//  259                 samples_vol90[index] = r_phase.vol.sample90;
//  260                 samples_curr[index] = r_phase.curr.sample;
//  261             }
//  262             else if(debug_data_type == '2')
//  263             {
//  264                 samples_vol[index] = y_phase.vol.sample;
//  265                 samples_vol90[index] = y_phase.vol.sample90;
//  266                 samples_curr[index] = y_phase.curr.sample;
//  267             }
//  268             else if(debug_data_type == '3')
//  269             {
//  270                 samples_vol[index] = b_phase.vol.sample;
//  271                 samples_vol90[index] = b_phase.vol.sample90;
//  272                 samples_curr[index] = b_phase.curr.sample;
//  273             }
//  274             index++;
//  275         }
//  276         else
//  277         {
//  278             index = 0;
//  279             debug_data_zc_found = 0;
//  280             debug_data_wf_ready_f = 1;
//  281         }
//  282     }
//  283 #endif    
//  284     
//  285     /* decision to calculate metrology parameters */
//  286     if((flag_phase_present_r == 1 && r_phase.vol.zc_cntr >= 50) ||
//  287        (flag_phase_present_r == 0 && r_phase.no_of_samples_temp >= SAMPLING_FREQ) ||
//  288            (r_phase.no_of_samples_temp >= (SAMPLING_FREQ+450)))
??metrology_function_0:
        MOVW      HL, #LWRD(_flag_metro2)  ;; 1 cycle
        MOV1      CY, [HL].0         ;; 1 cycle
        BNC       ??power_filter_5   ;; 4 cycles
        ; ------------------------------------- Block: 6 cycles
        MOVW      AX, N:_r_phase+4   ;; 1 cycle
        CMPW      AX, #0x32          ;; 1 cycle
        BNC       ??power_filter_6   ;; 4 cycles
        ; ------------------------------------- Block: 6 cycles
??power_filter_5:
        MOVW      HL, #LWRD(_flag_metro2)  ;; 1 cycle
        MOV1      CY, [HL].0         ;; 1 cycle
        BC        ??power_filter_7   ;; 4 cycles
        ; ------------------------------------- Block: 6 cycles
        MOVW      AX, N:_r_phase+2   ;; 1 cycle
        CMPW      AX, #0xF42         ;; 1 cycle
        BNC       ??power_filter_6   ;; 4 cycles
        ; ------------------------------------- Block: 6 cycles
??power_filter_7:
        MOVW      AX, N:_r_phase+2   ;; 1 cycle
        CMPW      AX, #0x1104        ;; 1 cycle
        SKNC                         ;; 4 cycles
        BR        N:??power_filter_8  ;; 4 cycles
        ; ------------------------------------- Block: 6 cycles
//  289     {
//  290         ph_ph.Ph_RY.angle.cntr = ph_ph.Ph_RY.angle.cntr_temp;
??power_filter_6:
        MOVW      AX, N:_ph_ph+6     ;; 1 cycle
        MOVW      N:_ph_ph+4, AX     ;; 1 cycle
//  291         r_phase.no_of_samples = r_phase.no_of_samples_temp;
        MOVW      AX, N:_r_phase+2   ;; 1 cycle
        MOVW      N:_r_phase, AX     ;; 1 cycle
//  292         r_phase.curr.offset_acc_cnt = r_phase.curr.offset_acc_cnt_temp;
        MOVW      BC, N:_r_phase+54  ;; 1 cycle
        MOVW      AX, N:_r_phase+52  ;; 1 cycle
        MOVW      N:_r_phase+48, AX  ;; 1 cycle
        XCHW      AX, BC             ;; 1 cycle
        MOVW      N:_r_phase+50, AX  ;; 1 cycle
        XCHW      AX, BC             ;; 1 cycle
//  293         r_phase.curr.rms_acc_cnt = r_phase.curr.rms_acc_cnt_temp;
        MOVW      HL, #LWRD(_r_phase+56)  ;; 1 cycle
        MOVW      DE, #LWRD(_r_phase+64)  ;; 1 cycle
        MOVW      AX, [DE]           ;; 1 cycle
        MOVW      [HL], AX           ;; 1 cycle
        MOVW      AX, [DE+0x02]      ;; 1 cycle
        MOVW      [HL+0x02], AX      ;; 1 cycle
        MOVW      AX, [DE+0x04]      ;; 1 cycle
        MOVW      [HL+0x04], AX      ;; 1 cycle
        MOVW      AX, [DE+0x06]      ;; 1 cycle
        MOVW      [HL+0x06], AX      ;; 1 cycle
//  294         r_phase.vol.offset_acc_cnt = r_phase.vol.offset_acc_cnt_temp;
        MOVW      BC, N:_r_phase+24  ;; 1 cycle
        MOVW      AX, N:_r_phase+22  ;; 1 cycle
        MOVW      N:_r_phase+18, AX  ;; 1 cycle
        XCHW      AX, BC             ;; 1 cycle
        MOVW      N:_r_phase+20, AX  ;; 1 cycle
        XCHW      AX, BC             ;; 1 cycle
//  295         r_phase.vol.rms_acc_cnt = r_phase.vol.rms_acc_cnt_temp;
        MOVW      HL, #LWRD(_r_phase+26)  ;; 1 cycle
        MOVW      DE, #LWRD(_r_phase+34)  ;; 1 cycle
        MOVW      AX, [DE]           ;; 1 cycle
        MOVW      [HL], AX           ;; 1 cycle
        MOVW      AX, [DE+0x02]      ;; 1 cycle
        MOVW      [HL+0x02], AX      ;; 1 cycle
        MOVW      AX, [DE+0x04]      ;; 1 cycle
        MOVW      [HL+0x04], AX      ;; 1 cycle
        MOVW      AX, [DE+0x06]      ;; 1 cycle
        MOVW      [HL+0x06], AX      ;; 1 cycle
//  296         r_phase.active.acc_cnt = r_phase.active.acc_cnt_temp;
        MOVW      HL, #LWRD(_r_phase+72)  ;; 1 cycle
        MOVW      DE, #LWRD(_r_phase+80)  ;; 1 cycle
        MOVW      AX, [DE]           ;; 1 cycle
        MOVW      [HL], AX           ;; 1 cycle
        MOVW      AX, [DE+0x02]      ;; 1 cycle
        MOVW      [HL+0x02], AX      ;; 1 cycle
        MOVW      AX, [DE+0x04]      ;; 1 cycle
        MOVW      [HL+0x04], AX      ;; 1 cycle
        MOVW      AX, [DE+0x06]      ;; 1 cycle
        MOVW      [HL+0x06], AX      ;; 1 cycle
//  297         r_phase.reactive.acc_cnt = r_phase.reactive.acc_cnt_temp;
        MOVW      HL, #LWRD(_r_phase+112)  ;; 1 cycle
        MOVW      DE, #LWRD(_r_phase+120)  ;; 1 cycle
        MOVW      AX, [DE]           ;; 1 cycle
        MOVW      [HL], AX           ;; 1 cycle
        MOVW      AX, [DE+0x02]      ;; 1 cycle
        MOVW      [HL+0x02], AX      ;; 1 cycle
        MOVW      AX, [DE+0x04]      ;; 1 cycle
        MOVW      [HL+0x04], AX      ;; 1 cycle
        MOVW      AX, [DE+0x06]      ;; 1 cycle
        MOVW      [HL+0x06], AX      ;; 1 cycle
//  298         
//  299         ph_ph.Ph_RY.angle.cntr_temp = 0;
        MOVW      AX, #0x0           ;; 1 cycle
        MOVW      N:_ph_ph+6, AX     ;; 1 cycle
//  300         r_phase.no_of_samples_temp = 0;
        MOVW      AX, #0x0           ;; 1 cycle
        MOVW      N:_r_phase+2, AX   ;; 1 cycle
//  301         r_phase.vol.zc_cntr = 0;
        MOVW      AX, #0x0           ;; 1 cycle
        MOVW      N:_r_phase+4, AX   ;; 1 cycle
//  302         r_phase.curr.offset_acc_cnt_temp = 0;
        MOVW      AX, #0x0           ;; 1 cycle
        MOVW      N:_r_phase+52, AX  ;; 1 cycle
        MOVW      AX, #0x0           ;; 1 cycle
        MOVW      N:_r_phase+54, AX  ;; 1 cycle
//  303         r_phase.curr.rms_acc_cnt_temp = 0;
        MOVW      HL, #LWRD(_r_phase+64)  ;; 1 cycle
        MOVW      AX, #0x0           ;; 1 cycle
        MOVW      [HL], AX           ;; 1 cycle
        MOVW      AX, #0x0           ;; 1 cycle
        MOVW      [HL+0x02], AX      ;; 1 cycle
        MOVW      AX, #0x0           ;; 1 cycle
        MOVW      [HL+0x04], AX      ;; 1 cycle
        MOVW      AX, #0x0           ;; 1 cycle
        MOVW      [HL+0x06], AX      ;; 1 cycle
//  304         r_phase.vol.offset_acc_cnt_temp = 0;
        MOVW      AX, #0x0           ;; 1 cycle
        MOVW      N:_r_phase+22, AX  ;; 1 cycle
        MOVW      AX, #0x0           ;; 1 cycle
        MOVW      N:_r_phase+24, AX  ;; 1 cycle
//  305         r_phase.vol.rms_acc_cnt_temp = 0;
        MOVW      HL, #LWRD(_r_phase+34)  ;; 1 cycle
        MOVW      AX, #0x0           ;; 1 cycle
        MOVW      [HL], AX           ;; 1 cycle
        MOVW      AX, #0x0           ;; 1 cycle
        MOVW      [HL+0x02], AX      ;; 1 cycle
        MOVW      AX, #0x0           ;; 1 cycle
        MOVW      [HL+0x04], AX      ;; 1 cycle
        MOVW      AX, #0x0           ;; 1 cycle
        MOVW      [HL+0x06], AX      ;; 1 cycle
//  306         r_phase.active.acc_cnt_temp = 0;
        MOVW      HL, #LWRD(_r_phase+80)  ;; 1 cycle
        MOVW      AX, #0x0           ;; 1 cycle
        MOVW      [HL], AX           ;; 1 cycle
        MOVW      AX, #0x0           ;; 1 cycle
        MOVW      [HL+0x02], AX      ;; 1 cycle
        MOVW      AX, #0x0           ;; 1 cycle
        MOVW      [HL+0x04], AX      ;; 1 cycle
        MOVW      AX, #0x0           ;; 1 cycle
        MOVW      [HL+0x06], AX      ;; 1 cycle
//  307         r_phase.reactive.acc_cnt_temp = 0;
        MOVW      HL, #LWRD(_r_phase+120)  ;; 1 cycle
        MOVW      AX, #0x0           ;; 1 cycle
        MOVW      [HL], AX           ;; 1 cycle
        MOVW      AX, #0x0           ;; 1 cycle
        MOVW      [HL+0x02], AX      ;; 1 cycle
        MOVW      AX, #0x0           ;; 1 cycle
        MOVW      [HL+0x04], AX      ;; 1 cycle
        MOVW      AX, #0x0           ;; 1 cycle
        MOVW      [HL+0x06], AX      ;; 1 cycle
//  308         
//  309         flag_metrology_process_r = 1;
        SET1      N:_flag_metrology.0  ;; 2 cycles
//  310         flag_metrology_process_n_trigger_r = 1;
        SET1      N:_flag_metrology1.0  ;; 2 cycles
//  311         
//  312         /* Calibration */
//  313         if(cal_done_f != 1)
        CMP       N:_cal_done_f, #0x1  ;; 1 cycle
        SKNZ                         ;; 4 cycles
        BR        N:??power_filter_8  ;; 4 cycles
        ; ------------------------------------- Block: 115 cycles
//  314         {
//  315             cal_RPh.no_of_samples = cal_RPh.no_of_samples_temp;
        MOVW      AX, N:_cal_RPh+2   ;; 1 cycle
        MOVW      N:_cal_RPh, AX     ;; 1 cycle
//  316             cal_RPh.no_of_samples_temp = 0;
        MOVW      AX, #0x0           ;; 1 cycle
        MOVW      N:_cal_RPh+2, AX   ;; 1 cycle
//  317             
//  318             cal_RPh.l_shift.active.acc_cnt = cal_RPh.l_shift.active.acc_cnt_temp;
        MOVW      HL, #LWRD(_cal_RPh+18)  ;; 1 cycle
        MOVW      DE, #LWRD(_cal_RPh+26)  ;; 1 cycle
        MOVW      AX, [DE]           ;; 1 cycle
        MOVW      [HL], AX           ;; 1 cycle
        MOVW      AX, [DE+0x02]      ;; 1 cycle
        MOVW      [HL+0x02], AX      ;; 1 cycle
        MOVW      AX, [DE+0x04]      ;; 1 cycle
        MOVW      [HL+0x04], AX      ;; 1 cycle
        MOVW      AX, [DE+0x06]      ;; 1 cycle
        MOVW      [HL+0x06], AX      ;; 1 cycle
//  319             cal_RPh.r_shift.active.acc_cnt = cal_RPh.r_shift.active.acc_cnt_temp;
        MOVW      HL, #LWRD(_cal_RPh+62)  ;; 1 cycle
        MOVW      DE, #LWRD(_cal_RPh+70)  ;; 1 cycle
        MOVW      AX, [DE]           ;; 1 cycle
        MOVW      [HL], AX           ;; 1 cycle
        MOVW      AX, [DE+0x02]      ;; 1 cycle
        MOVW      [HL+0x02], AX      ;; 1 cycle
        MOVW      AX, [DE+0x04]      ;; 1 cycle
        MOVW      [HL+0x04], AX      ;; 1 cycle
        MOVW      AX, [DE+0x06]      ;; 1 cycle
        MOVW      [HL+0x06], AX      ;; 1 cycle
//  320             cal_RPh.l_shift.active.acc_cnt_temp = 0;
        MOVW      HL, #LWRD(_cal_RPh+26)  ;; 1 cycle
        MOVW      AX, #0x0           ;; 1 cycle
        MOVW      [HL], AX           ;; 1 cycle
        MOVW      AX, #0x0           ;; 1 cycle
        MOVW      [HL+0x02], AX      ;; 1 cycle
        MOVW      AX, #0x0           ;; 1 cycle
        MOVW      [HL+0x04], AX      ;; 1 cycle
        MOVW      AX, #0x0           ;; 1 cycle
        MOVW      [HL+0x06], AX      ;; 1 cycle
//  321             cal_RPh.r_shift.active.acc_cnt_temp = 0;
        MOVW      HL, #LWRD(_cal_RPh+70)  ;; 1 cycle
        MOVW      AX, #0x0           ;; 1 cycle
        MOVW      [HL], AX           ;; 1 cycle
        MOVW      AX, #0x0           ;; 1 cycle
        MOVW      [HL+0x02], AX      ;; 1 cycle
        MOVW      AX, #0x0           ;; 1 cycle
        MOVW      [HL+0x04], AX      ;; 1 cycle
        MOVW      AX, #0x0           ;; 1 cycle
        MOVW      [HL+0x06], AX      ;; 1 cycle
//  322             
//  323             cal_RPh.l_shift.reactive.acc_cnt = cal_RPh.l_shift.reactive.acc_cnt_temp;
        MOVW      HL, #LWRD(_cal_RPh+38)  ;; 1 cycle
        MOVW      DE, #LWRD(_cal_RPh+46)  ;; 1 cycle
        MOVW      AX, [DE]           ;; 1 cycle
        MOVW      [HL], AX           ;; 1 cycle
        MOVW      AX, [DE+0x02]      ;; 1 cycle
        MOVW      [HL+0x02], AX      ;; 1 cycle
        MOVW      AX, [DE+0x04]      ;; 1 cycle
        MOVW      [HL+0x04], AX      ;; 1 cycle
        MOVW      AX, [DE+0x06]      ;; 1 cycle
        MOVW      [HL+0x06], AX      ;; 1 cycle
//  324             cal_RPh.r_shift.reactive.acc_cnt = cal_RPh.r_shift.reactive.acc_cnt_temp;
        MOVW      HL, #LWRD(_cal_RPh+82)  ;; 1 cycle
        MOVW      DE, #LWRD(_cal_RPh+90)  ;; 1 cycle
        MOVW      AX, [DE]           ;; 1 cycle
        MOVW      [HL], AX           ;; 1 cycle
        MOVW      AX, [DE+0x02]      ;; 1 cycle
        MOVW      [HL+0x02], AX      ;; 1 cycle
        MOVW      AX, [DE+0x04]      ;; 1 cycle
        MOVW      [HL+0x04], AX      ;; 1 cycle
        MOVW      AX, [DE+0x06]      ;; 1 cycle
        MOVW      [HL+0x06], AX      ;; 1 cycle
//  325             cal_RPh.l_shift.reactive.acc_cnt_temp = 0;
        MOVW      HL, #LWRD(_cal_RPh+46)  ;; 1 cycle
        MOVW      AX, #0x0           ;; 1 cycle
        MOVW      [HL], AX           ;; 1 cycle
        MOVW      AX, #0x0           ;; 1 cycle
        MOVW      [HL+0x02], AX      ;; 1 cycle
        MOVW      AX, #0x0           ;; 1 cycle
        MOVW      [HL+0x04], AX      ;; 1 cycle
        MOVW      AX, #0x0           ;; 1 cycle
        MOVW      [HL+0x06], AX      ;; 1 cycle
//  326             cal_RPh.r_shift.reactive.acc_cnt_temp = 0;
        MOVW      HL, #LWRD(_cal_RPh+90)  ;; 1 cycle
        MOVW      AX, #0x0           ;; 1 cycle
        MOVW      [HL], AX           ;; 1 cycle
        MOVW      AX, #0x0           ;; 1 cycle
        MOVW      [HL+0x02], AX      ;; 1 cycle
        MOVW      AX, #0x0           ;; 1 cycle
        MOVW      [HL+0x04], AX      ;; 1 cycle
        MOVW      AX, #0x0           ;; 1 cycle
        MOVW      [HL+0x06], AX      ;; 1 cycle
        ; ------------------------------------- Block: 80 cycles
//  327         }
//  328     }
//  329     if((flag_phase_present_y == 1 && y_phase.vol.zc_cntr >= 50) ||
//  330        (flag_phase_present_y == 0 && y_phase.no_of_samples_temp >= SAMPLING_FREQ) ||
//  331            (y_phase.no_of_samples_temp >= (SAMPLING_FREQ+450)))
??power_filter_8:
        MOVW      HL, #LWRD(_flag_metro2)  ;; 1 cycle
        MOV1      CY, [HL].1         ;; 1 cycle
        BNC       ??power_filter_9   ;; 4 cycles
        ; ------------------------------------- Block: 6 cycles
        MOVW      AX, N:_y_phase+4   ;; 1 cycle
        CMPW      AX, #0x32          ;; 1 cycle
        BNC       ??power_filter_10  ;; 4 cycles
        ; ------------------------------------- Block: 6 cycles
??power_filter_9:
        MOVW      HL, #LWRD(_flag_metro2)  ;; 1 cycle
        MOV1      CY, [HL].1         ;; 1 cycle
        BC        ??power_filter_11  ;; 4 cycles
        ; ------------------------------------- Block: 6 cycles
        MOVW      AX, N:_y_phase+2   ;; 1 cycle
        CMPW      AX, #0xF42         ;; 1 cycle
        BNC       ??power_filter_10  ;; 4 cycles
        ; ------------------------------------- Block: 6 cycles
??power_filter_11:
        MOVW      AX, N:_y_phase+2   ;; 1 cycle
        CMPW      AX, #0x1104        ;; 1 cycle
        SKNC                         ;; 4 cycles
        BR        N:??power_filter_12  ;; 4 cycles
        ; ------------------------------------- Block: 6 cycles
//  332     {
//  333         ph_ph.Ph_YB.angle.cntr = ph_ph.Ph_YB.angle.cntr_temp;
??power_filter_10:
        MOVW      AX, N:_ph_ph+14    ;; 1 cycle
        MOVW      N:_ph_ph+12, AX    ;; 1 cycle
//  334         y_phase.no_of_samples = y_phase.no_of_samples_temp;
        MOVW      AX, N:_y_phase+2   ;; 1 cycle
        MOVW      N:_y_phase, AX     ;; 1 cycle
//  335         y_phase.curr.offset_acc_cnt = y_phase.curr.offset_acc_cnt_temp;
        MOVW      BC, N:_y_phase+54  ;; 1 cycle
        MOVW      AX, N:_y_phase+52  ;; 1 cycle
        MOVW      N:_y_phase+48, AX  ;; 1 cycle
        XCHW      AX, BC             ;; 1 cycle
        MOVW      N:_y_phase+50, AX  ;; 1 cycle
        XCHW      AX, BC             ;; 1 cycle
//  336         y_phase.curr.rms_acc_cnt = y_phase.curr.rms_acc_cnt_temp;
        MOVW      HL, #LWRD(_y_phase+56)  ;; 1 cycle
        MOVW      DE, #LWRD(_y_phase+64)  ;; 1 cycle
        MOVW      AX, [DE]           ;; 1 cycle
        MOVW      [HL], AX           ;; 1 cycle
        MOVW      AX, [DE+0x02]      ;; 1 cycle
        MOVW      [HL+0x02], AX      ;; 1 cycle
        MOVW      AX, [DE+0x04]      ;; 1 cycle
        MOVW      [HL+0x04], AX      ;; 1 cycle
        MOVW      AX, [DE+0x06]      ;; 1 cycle
        MOVW      [HL+0x06], AX      ;; 1 cycle
//  337         y_phase.vol.offset_acc_cnt = y_phase.vol.offset_acc_cnt_temp;
        MOVW      BC, N:_y_phase+24  ;; 1 cycle
        MOVW      AX, N:_y_phase+22  ;; 1 cycle
        MOVW      N:_y_phase+18, AX  ;; 1 cycle
        XCHW      AX, BC             ;; 1 cycle
        MOVW      N:_y_phase+20, AX  ;; 1 cycle
        XCHW      AX, BC             ;; 1 cycle
//  338         y_phase.vol.rms_acc_cnt = y_phase.vol.rms_acc_cnt_temp;
        MOVW      HL, #LWRD(_y_phase+26)  ;; 1 cycle
        MOVW      DE, #LWRD(_y_phase+34)  ;; 1 cycle
        MOVW      AX, [DE]           ;; 1 cycle
        MOVW      [HL], AX           ;; 1 cycle
        MOVW      AX, [DE+0x02]      ;; 1 cycle
        MOVW      [HL+0x02], AX      ;; 1 cycle
        MOVW      AX, [DE+0x04]      ;; 1 cycle
        MOVW      [HL+0x04], AX      ;; 1 cycle
        MOVW      AX, [DE+0x06]      ;; 1 cycle
        MOVW      [HL+0x06], AX      ;; 1 cycle
//  339         y_phase.active.acc_cnt = y_phase.active.acc_cnt_temp;
        MOVW      HL, #LWRD(_y_phase+72)  ;; 1 cycle
        MOVW      DE, #LWRD(_y_phase+80)  ;; 1 cycle
        MOVW      AX, [DE]           ;; 1 cycle
        MOVW      [HL], AX           ;; 1 cycle
        MOVW      AX, [DE+0x02]      ;; 1 cycle
        MOVW      [HL+0x02], AX      ;; 1 cycle
        MOVW      AX, [DE+0x04]      ;; 1 cycle
        MOVW      [HL+0x04], AX      ;; 1 cycle
        MOVW      AX, [DE+0x06]      ;; 1 cycle
        MOVW      [HL+0x06], AX      ;; 1 cycle
//  340         y_phase.reactive.acc_cnt = y_phase.reactive.acc_cnt_temp;
        MOVW      HL, #LWRD(_y_phase+112)  ;; 1 cycle
        MOVW      DE, #LWRD(_y_phase+120)  ;; 1 cycle
        MOVW      AX, [DE]           ;; 1 cycle
        MOVW      [HL], AX           ;; 1 cycle
        MOVW      AX, [DE+0x02]      ;; 1 cycle
        MOVW      [HL+0x02], AX      ;; 1 cycle
        MOVW      AX, [DE+0x04]      ;; 1 cycle
        MOVW      [HL+0x04], AX      ;; 1 cycle
        MOVW      AX, [DE+0x06]      ;; 1 cycle
        MOVW      [HL+0x06], AX      ;; 1 cycle
//  341         
//  342         ph_ph.Ph_YB.angle.cntr_temp = 0;
        MOVW      AX, #0x0           ;; 1 cycle
        MOVW      N:_ph_ph+14, AX    ;; 1 cycle
//  343         y_phase.no_of_samples_temp = 0;
        MOVW      AX, #0x0           ;; 1 cycle
        MOVW      N:_y_phase+2, AX   ;; 1 cycle
//  344         y_phase.vol.zc_cntr = 0;
        MOVW      AX, #0x0           ;; 1 cycle
        MOVW      N:_y_phase+4, AX   ;; 1 cycle
//  345         y_phase.curr.offset_acc_cnt_temp = 0;
        MOVW      AX, #0x0           ;; 1 cycle
        MOVW      N:_y_phase+52, AX  ;; 1 cycle
        MOVW      AX, #0x0           ;; 1 cycle
        MOVW      N:_y_phase+54, AX  ;; 1 cycle
//  346         y_phase.curr.rms_acc_cnt_temp = 0;
        MOVW      HL, #LWRD(_y_phase+64)  ;; 1 cycle
        MOVW      AX, #0x0           ;; 1 cycle
        MOVW      [HL], AX           ;; 1 cycle
        MOVW      AX, #0x0           ;; 1 cycle
        MOVW      [HL+0x02], AX      ;; 1 cycle
        MOVW      AX, #0x0           ;; 1 cycle
        MOVW      [HL+0x04], AX      ;; 1 cycle
        MOVW      AX, #0x0           ;; 1 cycle
        MOVW      [HL+0x06], AX      ;; 1 cycle
//  347         y_phase.vol.offset_acc_cnt_temp = 0;
        MOVW      AX, #0x0           ;; 1 cycle
        MOVW      N:_y_phase+22, AX  ;; 1 cycle
        MOVW      AX, #0x0           ;; 1 cycle
        MOVW      N:_y_phase+24, AX  ;; 1 cycle
//  348         y_phase.vol.rms_acc_cnt_temp = 0;
        MOVW      HL, #LWRD(_y_phase+34)  ;; 1 cycle
        MOVW      AX, #0x0           ;; 1 cycle
        MOVW      [HL], AX           ;; 1 cycle
        MOVW      AX, #0x0           ;; 1 cycle
        MOVW      [HL+0x02], AX      ;; 1 cycle
        MOVW      AX, #0x0           ;; 1 cycle
        MOVW      [HL+0x04], AX      ;; 1 cycle
        MOVW      AX, #0x0           ;; 1 cycle
        MOVW      [HL+0x06], AX      ;; 1 cycle
//  349         y_phase.active.acc_cnt_temp = 0;
        MOVW      HL, #LWRD(_y_phase+80)  ;; 1 cycle
        MOVW      AX, #0x0           ;; 1 cycle
        MOVW      [HL], AX           ;; 1 cycle
        MOVW      AX, #0x0           ;; 1 cycle
        MOVW      [HL+0x02], AX      ;; 1 cycle
        MOVW      AX, #0x0           ;; 1 cycle
        MOVW      [HL+0x04], AX      ;; 1 cycle
        MOVW      AX, #0x0           ;; 1 cycle
        MOVW      [HL+0x06], AX      ;; 1 cycle
//  350         y_phase.reactive.acc_cnt_temp = 0;
        MOVW      HL, #LWRD(_y_phase+120)  ;; 1 cycle
        MOVW      AX, #0x0           ;; 1 cycle
        MOVW      [HL], AX           ;; 1 cycle
        MOVW      AX, #0x0           ;; 1 cycle
        MOVW      [HL+0x02], AX      ;; 1 cycle
        MOVW      AX, #0x0           ;; 1 cycle
        MOVW      [HL+0x04], AX      ;; 1 cycle
        MOVW      AX, #0x0           ;; 1 cycle
        MOVW      [HL+0x06], AX      ;; 1 cycle
//  351         
//  352         flag_metrology_process_y = 1;
        SET1      N:_flag_metrology.1  ;; 2 cycles
//  353         flag_metrology_process_n_trigger_y = 1;
        SET1      N:_flag_metrology1.1  ;; 2 cycles
//  354         
//  355         /* Calibration */
//  356         if(cal_done_f != 1)
        CMP       N:_cal_done_f, #0x1  ;; 1 cycle
        SKNZ                         ;; 4 cycles
        BR        N:??power_filter_12  ;; 4 cycles
        ; ------------------------------------- Block: 115 cycles
//  357         {
//  358             cal_YPh.no_of_samples = cal_YPh.no_of_samples_temp;
        MOVW      AX, N:_cal_YPh+2   ;; 1 cycle
        MOVW      N:_cal_YPh, AX     ;; 1 cycle
//  359             cal_YPh.no_of_samples_temp = 0;
        MOVW      AX, #0x0           ;; 1 cycle
        MOVW      N:_cal_YPh+2, AX   ;; 1 cycle
//  360             
//  361             cal_YPh.l_shift.active.acc_cnt = cal_YPh.l_shift.active.acc_cnt_temp;
        MOVW      HL, #LWRD(_cal_YPh+18)  ;; 1 cycle
        MOVW      DE, #LWRD(_cal_YPh+26)  ;; 1 cycle
        MOVW      AX, [DE]           ;; 1 cycle
        MOVW      [HL], AX           ;; 1 cycle
        MOVW      AX, [DE+0x02]      ;; 1 cycle
        MOVW      [HL+0x02], AX      ;; 1 cycle
        MOVW      AX, [DE+0x04]      ;; 1 cycle
        MOVW      [HL+0x04], AX      ;; 1 cycle
        MOVW      AX, [DE+0x06]      ;; 1 cycle
        MOVW      [HL+0x06], AX      ;; 1 cycle
//  362             cal_YPh.r_shift.active.acc_cnt = cal_YPh.r_shift.active.acc_cnt_temp;
        MOVW      HL, #LWRD(_cal_YPh+62)  ;; 1 cycle
        MOVW      DE, #LWRD(_cal_YPh+70)  ;; 1 cycle
        MOVW      AX, [DE]           ;; 1 cycle
        MOVW      [HL], AX           ;; 1 cycle
        MOVW      AX, [DE+0x02]      ;; 1 cycle
        MOVW      [HL+0x02], AX      ;; 1 cycle
        MOVW      AX, [DE+0x04]      ;; 1 cycle
        MOVW      [HL+0x04], AX      ;; 1 cycle
        MOVW      AX, [DE+0x06]      ;; 1 cycle
        MOVW      [HL+0x06], AX      ;; 1 cycle
//  363             cal_YPh.l_shift.active.acc_cnt_temp = 0;
        MOVW      HL, #LWRD(_cal_YPh+26)  ;; 1 cycle
        MOVW      AX, #0x0           ;; 1 cycle
        MOVW      [HL], AX           ;; 1 cycle
        MOVW      AX, #0x0           ;; 1 cycle
        MOVW      [HL+0x02], AX      ;; 1 cycle
        MOVW      AX, #0x0           ;; 1 cycle
        MOVW      [HL+0x04], AX      ;; 1 cycle
        MOVW      AX, #0x0           ;; 1 cycle
        MOVW      [HL+0x06], AX      ;; 1 cycle
//  364             cal_YPh.r_shift.active.acc_cnt_temp = 0;
        MOVW      HL, #LWRD(_cal_YPh+70)  ;; 1 cycle
        MOVW      AX, #0x0           ;; 1 cycle
        MOVW      [HL], AX           ;; 1 cycle
        MOVW      AX, #0x0           ;; 1 cycle
        MOVW      [HL+0x02], AX      ;; 1 cycle
        MOVW      AX, #0x0           ;; 1 cycle
        MOVW      [HL+0x04], AX      ;; 1 cycle
        MOVW      AX, #0x0           ;; 1 cycle
        MOVW      [HL+0x06], AX      ;; 1 cycle
//  365             
//  366             cal_YPh.l_shift.reactive.acc_cnt = cal_YPh.l_shift.reactive.acc_cnt_temp;
        MOVW      HL, #LWRD(_cal_YPh+38)  ;; 1 cycle
        MOVW      DE, #LWRD(_cal_YPh+46)  ;; 1 cycle
        MOVW      AX, [DE]           ;; 1 cycle
        MOVW      [HL], AX           ;; 1 cycle
        MOVW      AX, [DE+0x02]      ;; 1 cycle
        MOVW      [HL+0x02], AX      ;; 1 cycle
        MOVW      AX, [DE+0x04]      ;; 1 cycle
        MOVW      [HL+0x04], AX      ;; 1 cycle
        MOVW      AX, [DE+0x06]      ;; 1 cycle
        MOVW      [HL+0x06], AX      ;; 1 cycle
//  367             cal_YPh.r_shift.reactive.acc_cnt = cal_YPh.r_shift.reactive.acc_cnt_temp;
        MOVW      HL, #LWRD(_cal_YPh+82)  ;; 1 cycle
        MOVW      DE, #LWRD(_cal_YPh+90)  ;; 1 cycle
        MOVW      AX, [DE]           ;; 1 cycle
        MOVW      [HL], AX           ;; 1 cycle
        MOVW      AX, [DE+0x02]      ;; 1 cycle
        MOVW      [HL+0x02], AX      ;; 1 cycle
        MOVW      AX, [DE+0x04]      ;; 1 cycle
        MOVW      [HL+0x04], AX      ;; 1 cycle
        MOVW      AX, [DE+0x06]      ;; 1 cycle
        MOVW      [HL+0x06], AX      ;; 1 cycle
//  368             cal_YPh.l_shift.reactive.acc_cnt_temp = 0;
        MOVW      HL, #LWRD(_cal_YPh+46)  ;; 1 cycle
        MOVW      AX, #0x0           ;; 1 cycle
        MOVW      [HL], AX           ;; 1 cycle
        MOVW      AX, #0x0           ;; 1 cycle
        MOVW      [HL+0x02], AX      ;; 1 cycle
        MOVW      AX, #0x0           ;; 1 cycle
        MOVW      [HL+0x04], AX      ;; 1 cycle
        MOVW      AX, #0x0           ;; 1 cycle
        MOVW      [HL+0x06], AX      ;; 1 cycle
//  369             cal_YPh.r_shift.reactive.acc_cnt_temp = 0;
        MOVW      HL, #LWRD(_cal_YPh+90)  ;; 1 cycle
        MOVW      AX, #0x0           ;; 1 cycle
        MOVW      [HL], AX           ;; 1 cycle
        MOVW      AX, #0x0           ;; 1 cycle
        MOVW      [HL+0x02], AX      ;; 1 cycle
        MOVW      AX, #0x0           ;; 1 cycle
        MOVW      [HL+0x04], AX      ;; 1 cycle
        MOVW      AX, #0x0           ;; 1 cycle
        MOVW      [HL+0x06], AX      ;; 1 cycle
        ; ------------------------------------- Block: 80 cycles
//  370         }
//  371     }
//  372     if((flag_phase_present_b == 1 && b_phase.vol.zc_cntr >= 50) ||
//  373        (flag_phase_present_b == 0 && b_phase.no_of_samples_temp >= SAMPLING_FREQ) ||
//  374            (b_phase.no_of_samples_temp >= (SAMPLING_FREQ+450)))
??power_filter_12:
        MOVW      HL, #LWRD(_flag_metro2)  ;; 1 cycle
        MOV1      CY, [HL].2         ;; 1 cycle
        BNC       ??power_filter_13  ;; 4 cycles
        ; ------------------------------------- Block: 6 cycles
        MOVW      AX, N:_b_phase+4   ;; 1 cycle
        CMPW      AX, #0x32          ;; 1 cycle
        BNC       ??power_filter_14  ;; 4 cycles
        ; ------------------------------------- Block: 6 cycles
??power_filter_13:
        MOVW      HL, #LWRD(_flag_metro2)  ;; 1 cycle
        MOV1      CY, [HL].2         ;; 1 cycle
        BC        ??power_filter_15  ;; 4 cycles
        ; ------------------------------------- Block: 6 cycles
        MOVW      AX, N:_b_phase+2   ;; 1 cycle
        CMPW      AX, #0xF42         ;; 1 cycle
        BNC       ??power_filter_14  ;; 4 cycles
        ; ------------------------------------- Block: 6 cycles
??power_filter_15:
        MOVW      AX, N:_b_phase+2   ;; 1 cycle
        CMPW      AX, #0x1104        ;; 1 cycle
        SKNC                         ;; 4 cycles
        BR        N:??power_filter_16  ;; 4 cycles
        ; ------------------------------------- Block: 6 cycles
//  375     {
//  376         ph_ph.Ph_BR.angle.cntr = ph_ph.Ph_BR.angle.cntr_temp;
??power_filter_14:
        MOVW      AX, N:_ph_ph+22    ;; 1 cycle
        MOVW      N:_ph_ph+20, AX    ;; 1 cycle
//  377         b_phase.no_of_samples = b_phase.no_of_samples_temp;
        MOVW      AX, N:_b_phase+2   ;; 1 cycle
        MOVW      N:_b_phase, AX     ;; 1 cycle
//  378         b_phase.curr.offset_acc_cnt = b_phase.curr.offset_acc_cnt_temp;
        MOVW      BC, N:_b_phase+54  ;; 1 cycle
        MOVW      AX, N:_b_phase+52  ;; 1 cycle
        MOVW      N:_b_phase+48, AX  ;; 1 cycle
        XCHW      AX, BC             ;; 1 cycle
        MOVW      N:_b_phase+50, AX  ;; 1 cycle
        XCHW      AX, BC             ;; 1 cycle
//  379         b_phase.curr.rms_acc_cnt = b_phase.curr.rms_acc_cnt_temp;
        MOVW      HL, #LWRD(_b_phase+56)  ;; 1 cycle
        MOVW      DE, #LWRD(_b_phase+64)  ;; 1 cycle
        MOVW      AX, [DE]           ;; 1 cycle
        MOVW      [HL], AX           ;; 1 cycle
        MOVW      AX, [DE+0x02]      ;; 1 cycle
        MOVW      [HL+0x02], AX      ;; 1 cycle
        MOVW      AX, [DE+0x04]      ;; 1 cycle
        MOVW      [HL+0x04], AX      ;; 1 cycle
        MOVW      AX, [DE+0x06]      ;; 1 cycle
        MOVW      [HL+0x06], AX      ;; 1 cycle
//  380         b_phase.vol.offset_acc_cnt = b_phase.vol.offset_acc_cnt_temp;
        MOVW      BC, N:_b_phase+24  ;; 1 cycle
        MOVW      AX, N:_b_phase+22  ;; 1 cycle
        MOVW      N:_b_phase+18, AX  ;; 1 cycle
        XCHW      AX, BC             ;; 1 cycle
        MOVW      N:_b_phase+20, AX  ;; 1 cycle
        XCHW      AX, BC             ;; 1 cycle
//  381         b_phase.vol.rms_acc_cnt = b_phase.vol.rms_acc_cnt_temp;
        MOVW      HL, #LWRD(_b_phase+26)  ;; 1 cycle
        MOVW      DE, #LWRD(_b_phase+34)  ;; 1 cycle
        MOVW      AX, [DE]           ;; 1 cycle
        MOVW      [HL], AX           ;; 1 cycle
        MOVW      AX, [DE+0x02]      ;; 1 cycle
        MOVW      [HL+0x02], AX      ;; 1 cycle
        MOVW      AX, [DE+0x04]      ;; 1 cycle
        MOVW      [HL+0x04], AX      ;; 1 cycle
        MOVW      AX, [DE+0x06]      ;; 1 cycle
        MOVW      [HL+0x06], AX      ;; 1 cycle
//  382         b_phase.active.acc_cnt = b_phase.active.acc_cnt_temp;
        MOVW      HL, #LWRD(_b_phase+72)  ;; 1 cycle
        MOVW      DE, #LWRD(_b_phase+80)  ;; 1 cycle
        MOVW      AX, [DE]           ;; 1 cycle
        MOVW      [HL], AX           ;; 1 cycle
        MOVW      AX, [DE+0x02]      ;; 1 cycle
        MOVW      [HL+0x02], AX      ;; 1 cycle
        MOVW      AX, [DE+0x04]      ;; 1 cycle
        MOVW      [HL+0x04], AX      ;; 1 cycle
        MOVW      AX, [DE+0x06]      ;; 1 cycle
        MOVW      [HL+0x06], AX      ;; 1 cycle
//  383         b_phase.reactive.acc_cnt = b_phase.reactive.acc_cnt_temp;
        MOVW      HL, #LWRD(_b_phase+112)  ;; 1 cycle
        MOVW      DE, #LWRD(_b_phase+120)  ;; 1 cycle
        MOVW      AX, [DE]           ;; 1 cycle
        MOVW      [HL], AX           ;; 1 cycle
        MOVW      AX, [DE+0x02]      ;; 1 cycle
        MOVW      [HL+0x02], AX      ;; 1 cycle
        MOVW      AX, [DE+0x04]      ;; 1 cycle
        MOVW      [HL+0x04], AX      ;; 1 cycle
        MOVW      AX, [DE+0x06]      ;; 1 cycle
        MOVW      [HL+0x06], AX      ;; 1 cycle
//  384         
//  385         ph_ph.Ph_BR.angle.cntr_temp = 0;
        MOVW      AX, #0x0           ;; 1 cycle
        MOVW      N:_ph_ph+22, AX    ;; 1 cycle
//  386         b_phase.no_of_samples_temp = 0;
        MOVW      AX, #0x0           ;; 1 cycle
        MOVW      N:_b_phase+2, AX   ;; 1 cycle
//  387         b_phase.vol.zc_cntr = 0;
        MOVW      AX, #0x0           ;; 1 cycle
        MOVW      N:_b_phase+4, AX   ;; 1 cycle
//  388         b_phase.curr.offset_acc_cnt_temp = 0;
        MOVW      AX, #0x0           ;; 1 cycle
        MOVW      N:_b_phase+52, AX  ;; 1 cycle
        MOVW      AX, #0x0           ;; 1 cycle
        MOVW      N:_b_phase+54, AX  ;; 1 cycle
//  389         b_phase.curr.rms_acc_cnt_temp = 0;
        MOVW      HL, #LWRD(_b_phase+64)  ;; 1 cycle
        MOVW      AX, #0x0           ;; 1 cycle
        MOVW      [HL], AX           ;; 1 cycle
        MOVW      AX, #0x0           ;; 1 cycle
        MOVW      [HL+0x02], AX      ;; 1 cycle
        MOVW      AX, #0x0           ;; 1 cycle
        MOVW      [HL+0x04], AX      ;; 1 cycle
        MOVW      AX, #0x0           ;; 1 cycle
        MOVW      [HL+0x06], AX      ;; 1 cycle
//  390         b_phase.vol.offset_acc_cnt_temp = 0;
        MOVW      AX, #0x0           ;; 1 cycle
        MOVW      N:_b_phase+22, AX  ;; 1 cycle
        MOVW      AX, #0x0           ;; 1 cycle
        MOVW      N:_b_phase+24, AX  ;; 1 cycle
//  391         b_phase.vol.rms_acc_cnt_temp = 0;
        MOVW      HL, #LWRD(_b_phase+34)  ;; 1 cycle
        MOVW      AX, #0x0           ;; 1 cycle
        MOVW      [HL], AX           ;; 1 cycle
        MOVW      AX, #0x0           ;; 1 cycle
        MOVW      [HL+0x02], AX      ;; 1 cycle
        MOVW      AX, #0x0           ;; 1 cycle
        MOVW      [HL+0x04], AX      ;; 1 cycle
        MOVW      AX, #0x0           ;; 1 cycle
        MOVW      [HL+0x06], AX      ;; 1 cycle
//  392         b_phase.active.acc_cnt_temp = 0;
        MOVW      HL, #LWRD(_b_phase+80)  ;; 1 cycle
        MOVW      AX, #0x0           ;; 1 cycle
        MOVW      [HL], AX           ;; 1 cycle
        MOVW      AX, #0x0           ;; 1 cycle
        MOVW      [HL+0x02], AX      ;; 1 cycle
        MOVW      AX, #0x0           ;; 1 cycle
        MOVW      [HL+0x04], AX      ;; 1 cycle
        MOVW      AX, #0x0           ;; 1 cycle
        MOVW      [HL+0x06], AX      ;; 1 cycle
//  393         b_phase.reactive.acc_cnt_temp = 0;
        MOVW      HL, #LWRD(_b_phase+120)  ;; 1 cycle
        MOVW      AX, #0x0           ;; 1 cycle
        MOVW      [HL], AX           ;; 1 cycle
        MOVW      AX, #0x0           ;; 1 cycle
        MOVW      [HL+0x02], AX      ;; 1 cycle
        MOVW      AX, #0x0           ;; 1 cycle
        MOVW      [HL+0x04], AX      ;; 1 cycle
        MOVW      AX, #0x0           ;; 1 cycle
        MOVW      [HL+0x06], AX      ;; 1 cycle
//  394         
//  395         flag_metrology_process_b = 1;
        SET1      N:_flag_metrology.2  ;; 2 cycles
//  396         flag_metrology_process_n_trigger_b = 1;
        SET1      N:_flag_metrology1.2  ;; 2 cycles
//  397         
//  398         /* Calibration */
//  399         if(cal_done_f != 1)
        CMP       N:_cal_done_f, #0x1  ;; 1 cycle
        SKNZ                         ;; 4 cycles
        BR        N:??power_filter_16  ;; 4 cycles
        ; ------------------------------------- Block: 115 cycles
//  400         {
//  401             cal_BPh.no_of_samples = cal_BPh.no_of_samples_temp;
        MOVW      AX, N:_cal_BPh+2   ;; 1 cycle
        MOVW      N:_cal_BPh, AX     ;; 1 cycle
//  402             cal_BPh.no_of_samples_temp = 0;
        MOVW      AX, #0x0           ;; 1 cycle
        MOVW      N:_cal_BPh+2, AX   ;; 1 cycle
//  403             
//  404             cal_BPh.l_shift.active.acc_cnt = cal_BPh.l_shift.active.acc_cnt_temp;
        MOVW      HL, #LWRD(_cal_BPh+18)  ;; 1 cycle
        MOVW      DE, #LWRD(_cal_BPh+26)  ;; 1 cycle
        MOVW      AX, [DE]           ;; 1 cycle
        MOVW      [HL], AX           ;; 1 cycle
        MOVW      AX, [DE+0x02]      ;; 1 cycle
        MOVW      [HL+0x02], AX      ;; 1 cycle
        MOVW      AX, [DE+0x04]      ;; 1 cycle
        MOVW      [HL+0x04], AX      ;; 1 cycle
        MOVW      AX, [DE+0x06]      ;; 1 cycle
        MOVW      [HL+0x06], AX      ;; 1 cycle
//  405             cal_BPh.r_shift.active.acc_cnt = cal_BPh.r_shift.active.acc_cnt_temp;
        MOVW      HL, #LWRD(_cal_BPh+62)  ;; 1 cycle
        MOVW      DE, #LWRD(_cal_BPh+70)  ;; 1 cycle
        MOVW      AX, [DE]           ;; 1 cycle
        MOVW      [HL], AX           ;; 1 cycle
        MOVW      AX, [DE+0x02]      ;; 1 cycle
        MOVW      [HL+0x02], AX      ;; 1 cycle
        MOVW      AX, [DE+0x04]      ;; 1 cycle
        MOVW      [HL+0x04], AX      ;; 1 cycle
        MOVW      AX, [DE+0x06]      ;; 1 cycle
        MOVW      [HL+0x06], AX      ;; 1 cycle
//  406             cal_BPh.l_shift.active.acc_cnt_temp = 0;
        MOVW      HL, #LWRD(_cal_BPh+26)  ;; 1 cycle
        MOVW      AX, #0x0           ;; 1 cycle
        MOVW      [HL], AX           ;; 1 cycle
        MOVW      AX, #0x0           ;; 1 cycle
        MOVW      [HL+0x02], AX      ;; 1 cycle
        MOVW      AX, #0x0           ;; 1 cycle
        MOVW      [HL+0x04], AX      ;; 1 cycle
        MOVW      AX, #0x0           ;; 1 cycle
        MOVW      [HL+0x06], AX      ;; 1 cycle
//  407             cal_BPh.r_shift.active.acc_cnt_temp = 0;
        MOVW      HL, #LWRD(_cal_BPh+70)  ;; 1 cycle
        MOVW      AX, #0x0           ;; 1 cycle
        MOVW      [HL], AX           ;; 1 cycle
        MOVW      AX, #0x0           ;; 1 cycle
        MOVW      [HL+0x02], AX      ;; 1 cycle
        MOVW      AX, #0x0           ;; 1 cycle
        MOVW      [HL+0x04], AX      ;; 1 cycle
        MOVW      AX, #0x0           ;; 1 cycle
        MOVW      [HL+0x06], AX      ;; 1 cycle
//  408             
//  409             cal_BPh.l_shift.reactive.acc_cnt = cal_BPh.l_shift.reactive.acc_cnt_temp;
        MOVW      HL, #LWRD(_cal_BPh+38)  ;; 1 cycle
        MOVW      DE, #LWRD(_cal_BPh+46)  ;; 1 cycle
        MOVW      AX, [DE]           ;; 1 cycle
        MOVW      [HL], AX           ;; 1 cycle
        MOVW      AX, [DE+0x02]      ;; 1 cycle
        MOVW      [HL+0x02], AX      ;; 1 cycle
        MOVW      AX, [DE+0x04]      ;; 1 cycle
        MOVW      [HL+0x04], AX      ;; 1 cycle
        MOVW      AX, [DE+0x06]      ;; 1 cycle
        MOVW      [HL+0x06], AX      ;; 1 cycle
//  410             cal_BPh.r_shift.reactive.acc_cnt = cal_BPh.r_shift.reactive.acc_cnt_temp;
        MOVW      HL, #LWRD(_cal_BPh+82)  ;; 1 cycle
        MOVW      DE, #LWRD(_cal_BPh+90)  ;; 1 cycle
        MOVW      AX, [DE]           ;; 1 cycle
        MOVW      [HL], AX           ;; 1 cycle
        MOVW      AX, [DE+0x02]      ;; 1 cycle
        MOVW      [HL+0x02], AX      ;; 1 cycle
        MOVW      AX, [DE+0x04]      ;; 1 cycle
        MOVW      [HL+0x04], AX      ;; 1 cycle
        MOVW      AX, [DE+0x06]      ;; 1 cycle
        MOVW      [HL+0x06], AX      ;; 1 cycle
//  411             cal_BPh.l_shift.reactive.acc_cnt_temp = 0;
        MOVW      HL, #LWRD(_cal_BPh+46)  ;; 1 cycle
        MOVW      AX, #0x0           ;; 1 cycle
        MOVW      [HL], AX           ;; 1 cycle
        MOVW      AX, #0x0           ;; 1 cycle
        MOVW      [HL+0x02], AX      ;; 1 cycle
        MOVW      AX, #0x0           ;; 1 cycle
        MOVW      [HL+0x04], AX      ;; 1 cycle
        MOVW      AX, #0x0           ;; 1 cycle
        MOVW      [HL+0x06], AX      ;; 1 cycle
//  412             cal_BPh.r_shift.reactive.acc_cnt_temp = 0;
        MOVW      HL, #LWRD(_cal_BPh+90)  ;; 1 cycle
        MOVW      AX, #0x0           ;; 1 cycle
        MOVW      [HL], AX           ;; 1 cycle
        MOVW      AX, #0x0           ;; 1 cycle
        MOVW      [HL+0x02], AX      ;; 1 cycle
        MOVW      AX, #0x0           ;; 1 cycle
        MOVW      [HL+0x04], AX      ;; 1 cycle
        MOVW      AX, #0x0           ;; 1 cycle
        MOVW      [HL+0x06], AX      ;; 1 cycle
        ; ------------------------------------- Block: 80 cycles
//  413         }
//  414     }
//  415     
//  416     if(flag_phase_present_r == 1)
??power_filter_16:
        MOVW      HL, #LWRD(_flag_metro2)  ;; 1 cycle
        MOV1      CY, [HL].0         ;; 1 cycle
        BNC       ??power_filter_17  ;; 4 cycles
        ; ------------------------------------- Block: 6 cycles
//  417     {
//  418         if(flag_metrology_process_n_trigger_r == 1)
        MOVW      HL, #LWRD(_flag_metrology1)  ;; 1 cycle
        MOV1      CY, [HL].0         ;; 1 cycle
        BNC       ??power_filter_18  ;; 4 cycles
        ; ------------------------------------- Block: 6 cycles
//  419         {
//  420             flag_metrology_process_n_trigger_r = 0;
        CLR1      N:_flag_metrology1.0  ;; 2 cycles
//  421             flag_neutral_trigger_from_phase = 1;
        SET1      N:_flag_metrology1.3  ;; 2 cycles
        BR        S:??power_filter_18  ;; 3 cycles
        ; ------------------------------------- Block: 7 cycles
//  422         }
//  423     }
//  424     else if(flag_phase_present_y == 1)
??power_filter_17:
        MOVW      HL, #LWRD(_flag_metro2)  ;; 1 cycle
        MOV1      CY, [HL].1         ;; 1 cycle
        BNC       ??power_filter_19  ;; 4 cycles
        ; ------------------------------------- Block: 6 cycles
//  425     {
//  426         if(flag_metrology_process_n_trigger_y == 1)
        MOVW      HL, #LWRD(_flag_metrology1)  ;; 1 cycle
        MOV1      CY, [HL].1         ;; 1 cycle
        BNC       ??power_filter_18  ;; 4 cycles
        ; ------------------------------------- Block: 6 cycles
//  427         {
//  428             flag_metrology_process_n_trigger_y = 0;
        CLR1      N:_flag_metrology1.1  ;; 2 cycles
//  429             flag_neutral_trigger_from_phase = 1;
        SET1      N:_flag_metrology1.3  ;; 2 cycles
        BR        S:??power_filter_18  ;; 3 cycles
        ; ------------------------------------- Block: 7 cycles
//  430         }
//  431     }
//  432     else if(flag_phase_present_b == 1)
??power_filter_19:
        MOVW      HL, #LWRD(_flag_metro2)  ;; 1 cycle
        MOV1      CY, [HL].2         ;; 1 cycle
        BNC       ??power_filter_18  ;; 4 cycles
        ; ------------------------------------- Block: 6 cycles
//  433     {
//  434         if(flag_metrology_process_n_trigger_b == 1)
        MOVW      HL, #LWRD(_flag_metrology1)  ;; 1 cycle
        MOV1      CY, [HL].2         ;; 1 cycle
        BNC       ??power_filter_18  ;; 4 cycles
        ; ------------------------------------- Block: 6 cycles
//  435         {
//  436             flag_metrology_process_n_trigger_b = 0;
        CLR1      N:_flag_metrology1.2  ;; 2 cycles
//  437             flag_neutral_trigger_from_phase = 1;
        SET1      N:_flag_metrology1.3  ;; 2 cycles
        ; ------------------------------------- Block: 4 cycles
//  438         }
//  439     }
//  440     
//  441     if(flag_neutral_trigger_from_phase == 1 ||
//  442        n_phase.no_of_samples_temp >= (SAMPLING_FREQ+450))
??power_filter_18:
        MOVW      HL, #LWRD(_flag_metrology1)  ;; 1 cycle
        MOV1      CY, [HL].3         ;; 1 cycle
        BC        ??power_filter_20  ;; 4 cycles
        ; ------------------------------------- Block: 6 cycles
        MOVW      AX, N:_n_phase+2   ;; 1 cycle
        CMPW      AX, #0x1104        ;; 1 cycle
        BC        ??power_filter_21  ;; 4 cycles
        ; ------------------------------------- Block: 6 cycles
//  443     {
//  444         flag_neutral_trigger_from_phase = 0;
??power_filter_20:
        CLR1      N:_flag_metrology1.3  ;; 2 cycles
//  445         n_phase.no_of_samples = n_phase.no_of_samples_temp;
        MOVW      AX, N:_n_phase+2   ;; 1 cycle
        MOVW      N:_n_phase, AX     ;; 1 cycle
//  446         n_phase.curr.offset_acc_cnt = n_phase.curr.offset_acc_cnt_temp;
        MOVW      BC, N:_n_phase+16  ;; 1 cycle
        MOVW      AX, N:_n_phase+14  ;; 1 cycle
        MOVW      N:_n_phase+10, AX  ;; 1 cycle
        XCHW      AX, BC             ;; 1 cycle
        MOVW      N:_n_phase+12, AX  ;; 1 cycle
        XCHW      AX, BC             ;; 1 cycle
//  447         n_phase.curr.rms_acc_cnt = n_phase.curr.rms_acc_cnt_temp;
        MOVW      HL, #LWRD(_n_phase+18)  ;; 1 cycle
        MOVW      DE, #LWRD(_n_phase+26)  ;; 1 cycle
        MOVW      AX, [DE]           ;; 1 cycle
        MOVW      [HL], AX           ;; 1 cycle
        MOVW      AX, [DE+0x02]      ;; 1 cycle
        MOVW      [HL+0x02], AX      ;; 1 cycle
        MOVW      AX, [DE+0x04]      ;; 1 cycle
        MOVW      [HL+0x04], AX      ;; 1 cycle
        MOVW      AX, [DE+0x06]      ;; 1 cycle
        MOVW      [HL+0x06], AX      ;; 1 cycle
//  448         n_phase.curr.offset_acc_cnt_temp = 0;
        MOVW      AX, #0x0           ;; 1 cycle
        MOVW      N:_n_phase+14, AX  ;; 1 cycle
        MOVW      AX, #0x0           ;; 1 cycle
        MOVW      N:_n_phase+16, AX  ;; 1 cycle
//  449         n_phase.curr.rms_acc_cnt_temp = 0;
        MOVW      HL, #LWRD(_n_phase+26)  ;; 1 cycle
        MOVW      AX, #0x0           ;; 1 cycle
        MOVW      [HL], AX           ;; 1 cycle
        MOVW      AX, #0x0           ;; 1 cycle
        MOVW      [HL+0x02], AX      ;; 1 cycle
        MOVW      AX, #0x0           ;; 1 cycle
        MOVW      [HL+0x04], AX      ;; 1 cycle
        MOVW      AX, #0x0           ;; 1 cycle
        MOVW      [HL+0x06], AX      ;; 1 cycle
//  450         n_phase.no_of_samples_temp = 0;
        MOVW      AX, #0x0           ;; 1 cycle
        MOVW      N:_n_phase+2, AX   ;; 1 cycle
//  451         
//  452         flag_metrology_process_n = 1;
        SET1      N:_flag_metrology.3  ;; 2 cycles
        ; ------------------------------------- Block: 37 cycles
//  453     }
//  454     
//  455     /* RMS calculation accumulation */
//  456     HWMultiplierAccSigned(r_phase.vol.sample, r_phase.vol.sample, r_phase.vol.rms_acc_cnt_temp);
??power_filter_21:
        MOV       0x29A, #0xC0       ;; 1 cycle
        MOVW      HL, #LWRD(_mac_union_4int)  ;; 1 cycle
        MOVW      DE, #LWRD(_r_phase+34)  ;; 1 cycle
        MOVW      AX, [DE]           ;; 1 cycle
        MOVW      [HL], AX           ;; 1 cycle
        MOVW      AX, [DE+0x02]      ;; 1 cycle
        MOVW      [HL+0x02], AX      ;; 1 cycle
        MOVW      AX, [DE+0x04]      ;; 1 cycle
        MOVW      [HL+0x04], AX      ;; 1 cycle
        MOVW      AX, [DE+0x06]      ;; 1 cycle
        MOVW      [HL+0x06], AX      ;; 1 cycle
        MOVW      AX, N:_mac_union_4int  ;; 1 cycle
        MOVW      0x290, AX          ;; 1 cycle
        MOVW      AX, N:_mac_union_4int+2  ;; 1 cycle
        MOVW      0x292, AX          ;; 1 cycle
        MOVW      AX, N:_mac_union_4int+4  ;; 1 cycle
        MOVW      0x294, AX          ;; 1 cycle
        MOVW      AX, N:_mac_union_4int+6  ;; 1 cycle
        MOVW      0x296, AX          ;; 1 cycle
        MOVW      AX, N:_r_phase+8   ;; 1 cycle
        MOVW      BC, AX             ;; 1 cycle
        SARW      AX, 0xF            ;; 1 cycle
        XCHW      AX, BC             ;; 1 cycle
        MOVW      N:_mac_union_2int, AX  ;; 1 cycle
        XCHW      AX, BC             ;; 1 cycle
        MOVW      N:_mac_union_2int+2, AX  ;; 1 cycle
        XCHW      AX, BC             ;; 1 cycle
        MOVW      AX, N:_mac_union_2int  ;; 1 cycle
        MOVW      0x28C, AX          ;; 1 cycle
        MOVW      AX, N:_mac_union_2int+2  ;; 1 cycle
        MOVW      0x28E, AX          ;; 1 cycle
        MOVW      AX, N:_r_phase+8   ;; 1 cycle
        MOVW      BC, AX             ;; 1 cycle
        SARW      AX, 0xF            ;; 1 cycle
        XCHW      AX, BC             ;; 1 cycle
        MOVW      N:_mac_union_2int, AX  ;; 1 cycle
        XCHW      AX, BC             ;; 1 cycle
        MOVW      N:_mac_union_2int+2, AX  ;; 1 cycle
        XCHW      AX, BC             ;; 1 cycle
        MOVW      AX, N:_mac_union_2int  ;; 1 cycle
        MOVW      0xFFF3C, AX        ;; 1 cycle
        MOVW      AX, N:_mac_union_2int+2  ;; 1 cycle
        MOVW      0xFFF3E, AX        ;; 1 cycle
        NOP                          ;; 1 cycle
        NOP                          ;; 1 cycle
        MOVW      AX, 0x290          ;; 1 cycle
        MOVW      N:_mac_union_4int, AX  ;; 1 cycle
        MOVW      AX, 0x292          ;; 1 cycle
        MOVW      N:_mac_union_4int+2, AX  ;; 1 cycle
        MOVW      AX, 0x294          ;; 1 cycle
        MOVW      N:_mac_union_4int+4, AX  ;; 1 cycle
        MOVW      AX, 0x296          ;; 1 cycle
        MOVW      N:_mac_union_4int+6, AX  ;; 1 cycle
        MOVW      HL, #LWRD(_r_phase+34)  ;; 1 cycle
        MOVW      DE, #LWRD(_mac_union_4int)  ;; 1 cycle
        MOVW      AX, [DE]           ;; 1 cycle
        MOVW      [HL], AX           ;; 1 cycle
        MOVW      AX, [DE+0x02]      ;; 1 cycle
        MOVW      [HL+0x02], AX      ;; 1 cycle
        MOVW      AX, [DE+0x04]      ;; 1 cycle
        MOVW      [HL+0x04], AX      ;; 1 cycle
        MOVW      AX, [DE+0x06]      ;; 1 cycle
        MOVW      [HL+0x06], AX      ;; 1 cycle
//  457     HWMultiplierAccSigned(y_phase.vol.sample, y_phase.vol.sample, y_phase.vol.rms_acc_cnt_temp);
        MOV       0x29A, #0xC0       ;; 1 cycle
        MOVW      HL, #LWRD(_mac_union_4int)  ;; 1 cycle
        MOVW      DE, #LWRD(_y_phase+34)  ;; 1 cycle
        MOVW      AX, [DE]           ;; 1 cycle
        MOVW      [HL], AX           ;; 1 cycle
        MOVW      AX, [DE+0x02]      ;; 1 cycle
        MOVW      [HL+0x02], AX      ;; 1 cycle
        MOVW      AX, [DE+0x04]      ;; 1 cycle
        MOVW      [HL+0x04], AX      ;; 1 cycle
        MOVW      AX, [DE+0x06]      ;; 1 cycle
        MOVW      [HL+0x06], AX      ;; 1 cycle
        MOVW      AX, N:_mac_union_4int  ;; 1 cycle
        MOVW      0x290, AX          ;; 1 cycle
        MOVW      AX, N:_mac_union_4int+2  ;; 1 cycle
        MOVW      0x292, AX          ;; 1 cycle
        MOVW      AX, N:_mac_union_4int+4  ;; 1 cycle
        MOVW      0x294, AX          ;; 1 cycle
        MOVW      AX, N:_mac_union_4int+6  ;; 1 cycle
        MOVW      0x296, AX          ;; 1 cycle
        MOVW      AX, N:_y_phase+8   ;; 1 cycle
        MOVW      BC, AX             ;; 1 cycle
        SARW      AX, 0xF            ;; 1 cycle
        XCHW      AX, BC             ;; 1 cycle
        MOVW      N:_mac_union_2int, AX  ;; 1 cycle
        XCHW      AX, BC             ;; 1 cycle
        MOVW      N:_mac_union_2int+2, AX  ;; 1 cycle
        XCHW      AX, BC             ;; 1 cycle
        MOVW      AX, N:_mac_union_2int  ;; 1 cycle
        MOVW      0x28C, AX          ;; 1 cycle
        MOVW      AX, N:_mac_union_2int+2  ;; 1 cycle
        MOVW      0x28E, AX          ;; 1 cycle
        MOVW      AX, N:_y_phase+8   ;; 1 cycle
        MOVW      BC, AX             ;; 1 cycle
        SARW      AX, 0xF            ;; 1 cycle
        XCHW      AX, BC             ;; 1 cycle
        MOVW      N:_mac_union_2int, AX  ;; 1 cycle
        XCHW      AX, BC             ;; 1 cycle
        MOVW      N:_mac_union_2int+2, AX  ;; 1 cycle
        XCHW      AX, BC             ;; 1 cycle
        MOVW      AX, N:_mac_union_2int  ;; 1 cycle
        MOVW      0xFFF3C, AX        ;; 1 cycle
        MOVW      AX, N:_mac_union_2int+2  ;; 1 cycle
        MOVW      0xFFF3E, AX        ;; 1 cycle
        NOP                          ;; 1 cycle
        NOP                          ;; 1 cycle
        MOVW      AX, 0x290          ;; 1 cycle
        MOVW      N:_mac_union_4int, AX  ;; 1 cycle
        MOVW      AX, 0x292          ;; 1 cycle
        MOVW      N:_mac_union_4int+2, AX  ;; 1 cycle
        MOVW      AX, 0x294          ;; 1 cycle
        MOVW      N:_mac_union_4int+4, AX  ;; 1 cycle
        MOVW      AX, 0x296          ;; 1 cycle
        MOVW      N:_mac_union_4int+6, AX  ;; 1 cycle
        MOVW      HL, #LWRD(_y_phase+34)  ;; 1 cycle
        MOVW      DE, #LWRD(_mac_union_4int)  ;; 1 cycle
        MOVW      AX, [DE]           ;; 1 cycle
        MOVW      [HL], AX           ;; 1 cycle
        MOVW      AX, [DE+0x02]      ;; 1 cycle
        MOVW      [HL+0x02], AX      ;; 1 cycle
        MOVW      AX, [DE+0x04]      ;; 1 cycle
        MOVW      [HL+0x04], AX      ;; 1 cycle
        MOVW      AX, [DE+0x06]      ;; 1 cycle
        MOVW      [HL+0x06], AX      ;; 1 cycle
//  458     HWMultiplierAccSigned(b_phase.vol.sample, b_phase.vol.sample, b_phase.vol.rms_acc_cnt_temp);
        MOV       0x29A, #0xC0       ;; 1 cycle
        MOVW      HL, #LWRD(_mac_union_4int)  ;; 1 cycle
        MOVW      DE, #LWRD(_b_phase+34)  ;; 1 cycle
        MOVW      AX, [DE]           ;; 1 cycle
        MOVW      [HL], AX           ;; 1 cycle
        MOVW      AX, [DE+0x02]      ;; 1 cycle
        MOVW      [HL+0x02], AX      ;; 1 cycle
        MOVW      AX, [DE+0x04]      ;; 1 cycle
        MOVW      [HL+0x04], AX      ;; 1 cycle
        MOVW      AX, [DE+0x06]      ;; 1 cycle
        MOVW      [HL+0x06], AX      ;; 1 cycle
        MOVW      AX, N:_mac_union_4int  ;; 1 cycle
        MOVW      0x290, AX          ;; 1 cycle
        MOVW      AX, N:_mac_union_4int+2  ;; 1 cycle
        MOVW      0x292, AX          ;; 1 cycle
        MOVW      AX, N:_mac_union_4int+4  ;; 1 cycle
        MOVW      0x294, AX          ;; 1 cycle
        MOVW      AX, N:_mac_union_4int+6  ;; 1 cycle
        MOVW      0x296, AX          ;; 1 cycle
        MOVW      AX, N:_b_phase+8   ;; 1 cycle
        MOVW      BC, AX             ;; 1 cycle
        SARW      AX, 0xF            ;; 1 cycle
        XCHW      AX, BC             ;; 1 cycle
        MOVW      N:_mac_union_2int, AX  ;; 1 cycle
        XCHW      AX, BC             ;; 1 cycle
        MOVW      N:_mac_union_2int+2, AX  ;; 1 cycle
        XCHW      AX, BC             ;; 1 cycle
        MOVW      AX, N:_mac_union_2int  ;; 1 cycle
        MOVW      0x28C, AX          ;; 1 cycle
        MOVW      AX, N:_mac_union_2int+2  ;; 1 cycle
        MOVW      0x28E, AX          ;; 1 cycle
        MOVW      AX, N:_b_phase+8   ;; 1 cycle
        MOVW      BC, AX             ;; 1 cycle
        SARW      AX, 0xF            ;; 1 cycle
        XCHW      AX, BC             ;; 1 cycle
        MOVW      N:_mac_union_2int, AX  ;; 1 cycle
        XCHW      AX, BC             ;; 1 cycle
        MOVW      N:_mac_union_2int+2, AX  ;; 1 cycle
        XCHW      AX, BC             ;; 1 cycle
        MOVW      AX, N:_mac_union_2int  ;; 1 cycle
        MOVW      0xFFF3C, AX        ;; 1 cycle
        MOVW      AX, N:_mac_union_2int+2  ;; 1 cycle
        MOVW      0xFFF3E, AX        ;; 1 cycle
        NOP                          ;; 1 cycle
        NOP                          ;; 1 cycle
        MOVW      AX, 0x290          ;; 1 cycle
        MOVW      N:_mac_union_4int, AX  ;; 1 cycle
        MOVW      AX, 0x292          ;; 1 cycle
        MOVW      N:_mac_union_4int+2, AX  ;; 1 cycle
        MOVW      AX, 0x294          ;; 1 cycle
        MOVW      N:_mac_union_4int+4, AX  ;; 1 cycle
        MOVW      AX, 0x296          ;; 1 cycle
        MOVW      N:_mac_union_4int+6, AX  ;; 1 cycle
        MOVW      HL, #LWRD(_b_phase+34)  ;; 1 cycle
        MOVW      DE, #LWRD(_mac_union_4int)  ;; 1 cycle
        MOVW      AX, [DE]           ;; 1 cycle
        MOVW      [HL], AX           ;; 1 cycle
        MOVW      AX, [DE+0x02]      ;; 1 cycle
        MOVW      [HL+0x02], AX      ;; 1 cycle
        MOVW      AX, [DE+0x04]      ;; 1 cycle
        MOVW      [HL+0x04], AX      ;; 1 cycle
        MOVW      AX, [DE+0x06]      ;; 1 cycle
        MOVW      [HL+0x06], AX      ;; 1 cycle
//  459     HWMultiplierAccSigned(r_phase.curr.sample, r_phase.curr.sample, r_phase.curr.rms_acc_cnt_temp);
        MOV       0x29A, #0xC0       ;; 1 cycle
        MOVW      HL, #LWRD(_mac_union_4int)  ;; 1 cycle
        MOVW      DE, #LWRD(_r_phase+64)  ;; 1 cycle
        MOVW      AX, [DE]           ;; 1 cycle
        MOVW      [HL], AX           ;; 1 cycle
        MOVW      AX, [DE+0x02]      ;; 1 cycle
        MOVW      [HL+0x02], AX      ;; 1 cycle
        MOVW      AX, [DE+0x04]      ;; 1 cycle
        MOVW      [HL+0x04], AX      ;; 1 cycle
        MOVW      AX, [DE+0x06]      ;; 1 cycle
        MOVW      [HL+0x06], AX      ;; 1 cycle
        MOVW      AX, N:_mac_union_4int  ;; 1 cycle
        MOVW      0x290, AX          ;; 1 cycle
        MOVW      AX, N:_mac_union_4int+2  ;; 1 cycle
        MOVW      0x292, AX          ;; 1 cycle
        MOVW      AX, N:_mac_union_4int+4  ;; 1 cycle
        MOVW      0x294, AX          ;; 1 cycle
        MOVW      AX, N:_mac_union_4int+6  ;; 1 cycle
        MOVW      0x296, AX          ;; 1 cycle
        MOVW      AX, N:_r_phase+44  ;; 1 cycle
        MOVW      BC, AX             ;; 1 cycle
        SARW      AX, 0xF            ;; 1 cycle
        XCHW      AX, BC             ;; 1 cycle
        MOVW      N:_mac_union_2int, AX  ;; 1 cycle
        XCHW      AX, BC             ;; 1 cycle
        MOVW      N:_mac_union_2int+2, AX  ;; 1 cycle
        XCHW      AX, BC             ;; 1 cycle
        MOVW      AX, N:_mac_union_2int  ;; 1 cycle
        MOVW      0x28C, AX          ;; 1 cycle
        MOVW      AX, N:_mac_union_2int+2  ;; 1 cycle
        MOVW      0x28E, AX          ;; 1 cycle
        MOVW      AX, N:_r_phase+44  ;; 1 cycle
        MOVW      BC, AX             ;; 1 cycle
        SARW      AX, 0xF            ;; 1 cycle
        XCHW      AX, BC             ;; 1 cycle
        MOVW      N:_mac_union_2int, AX  ;; 1 cycle
        XCHW      AX, BC             ;; 1 cycle
        MOVW      N:_mac_union_2int+2, AX  ;; 1 cycle
        XCHW      AX, BC             ;; 1 cycle
        MOVW      AX, N:_mac_union_2int  ;; 1 cycle
        MOVW      0xFFF3C, AX        ;; 1 cycle
        MOVW      AX, N:_mac_union_2int+2  ;; 1 cycle
        MOVW      0xFFF3E, AX        ;; 1 cycle
        NOP                          ;; 1 cycle
        NOP                          ;; 1 cycle
        MOVW      AX, 0x290          ;; 1 cycle
        MOVW      N:_mac_union_4int, AX  ;; 1 cycle
        MOVW      AX, 0x292          ;; 1 cycle
        MOVW      N:_mac_union_4int+2, AX  ;; 1 cycle
        MOVW      AX, 0x294          ;; 1 cycle
        MOVW      N:_mac_union_4int+4, AX  ;; 1 cycle
        MOVW      AX, 0x296          ;; 1 cycle
        MOVW      N:_mac_union_4int+6, AX  ;; 1 cycle
        MOVW      HL, #LWRD(_r_phase+64)  ;; 1 cycle
        MOVW      DE, #LWRD(_mac_union_4int)  ;; 1 cycle
        MOVW      AX, [DE]           ;; 1 cycle
        MOVW      [HL], AX           ;; 1 cycle
        MOVW      AX, [DE+0x02]      ;; 1 cycle
        MOVW      [HL+0x02], AX      ;; 1 cycle
        MOVW      AX, [DE+0x04]      ;; 1 cycle
        MOVW      [HL+0x04], AX      ;; 1 cycle
        MOVW      AX, [DE+0x06]      ;; 1 cycle
        MOVW      [HL+0x06], AX      ;; 1 cycle
//  460     HWMultiplierAccSigned(y_phase.curr.sample, y_phase.curr.sample, y_phase.curr.rms_acc_cnt_temp);
        MOV       0x29A, #0xC0       ;; 1 cycle
        MOVW      HL, #LWRD(_mac_union_4int)  ;; 1 cycle
        MOVW      DE, #LWRD(_y_phase+64)  ;; 1 cycle
        MOVW      AX, [DE]           ;; 1 cycle
        MOVW      [HL], AX           ;; 1 cycle
        MOVW      AX, [DE+0x02]      ;; 1 cycle
        MOVW      [HL+0x02], AX      ;; 1 cycle
        MOVW      AX, [DE+0x04]      ;; 1 cycle
        MOVW      [HL+0x04], AX      ;; 1 cycle
        MOVW      AX, [DE+0x06]      ;; 1 cycle
        MOVW      [HL+0x06], AX      ;; 1 cycle
        MOVW      AX, N:_mac_union_4int  ;; 1 cycle
        MOVW      0x290, AX          ;; 1 cycle
        MOVW      AX, N:_mac_union_4int+2  ;; 1 cycle
        MOVW      0x292, AX          ;; 1 cycle
        MOVW      AX, N:_mac_union_4int+4  ;; 1 cycle
        MOVW      0x294, AX          ;; 1 cycle
        MOVW      AX, N:_mac_union_4int+6  ;; 1 cycle
        MOVW      0x296, AX          ;; 1 cycle
        MOVW      AX, N:_y_phase+44  ;; 1 cycle
        MOVW      BC, AX             ;; 1 cycle
        SARW      AX, 0xF            ;; 1 cycle
        XCHW      AX, BC             ;; 1 cycle
        MOVW      N:_mac_union_2int, AX  ;; 1 cycle
        XCHW      AX, BC             ;; 1 cycle
        MOVW      N:_mac_union_2int+2, AX  ;; 1 cycle
        XCHW      AX, BC             ;; 1 cycle
        MOVW      AX, N:_mac_union_2int  ;; 1 cycle
        MOVW      0x28C, AX          ;; 1 cycle
        MOVW      AX, N:_mac_union_2int+2  ;; 1 cycle
        MOVW      0x28E, AX          ;; 1 cycle
        MOVW      AX, N:_y_phase+44  ;; 1 cycle
        MOVW      BC, AX             ;; 1 cycle
        SARW      AX, 0xF            ;; 1 cycle
        XCHW      AX, BC             ;; 1 cycle
        MOVW      N:_mac_union_2int, AX  ;; 1 cycle
        XCHW      AX, BC             ;; 1 cycle
        MOVW      N:_mac_union_2int+2, AX  ;; 1 cycle
        XCHW      AX, BC             ;; 1 cycle
        MOVW      AX, N:_mac_union_2int  ;; 1 cycle
        MOVW      0xFFF3C, AX        ;; 1 cycle
        MOVW      AX, N:_mac_union_2int+2  ;; 1 cycle
        MOVW      0xFFF3E, AX        ;; 1 cycle
        NOP                          ;; 1 cycle
        NOP                          ;; 1 cycle
        MOVW      AX, 0x290          ;; 1 cycle
        MOVW      N:_mac_union_4int, AX  ;; 1 cycle
        MOVW      AX, 0x292          ;; 1 cycle
        MOVW      N:_mac_union_4int+2, AX  ;; 1 cycle
        MOVW      AX, 0x294          ;; 1 cycle
        MOVW      N:_mac_union_4int+4, AX  ;; 1 cycle
        MOVW      AX, 0x296          ;; 1 cycle
        MOVW      N:_mac_union_4int+6, AX  ;; 1 cycle
        MOVW      HL, #LWRD(_y_phase+64)  ;; 1 cycle
        MOVW      DE, #LWRD(_mac_union_4int)  ;; 1 cycle
        MOVW      AX, [DE]           ;; 1 cycle
        MOVW      [HL], AX           ;; 1 cycle
        MOVW      AX, [DE+0x02]      ;; 1 cycle
        MOVW      [HL+0x02], AX      ;; 1 cycle
        MOVW      AX, [DE+0x04]      ;; 1 cycle
        MOVW      [HL+0x04], AX      ;; 1 cycle
        MOVW      AX, [DE+0x06]      ;; 1 cycle
        MOVW      [HL+0x06], AX      ;; 1 cycle
//  461     HWMultiplierAccSigned(b_phase.curr.sample, b_phase.curr.sample, b_phase.curr.rms_acc_cnt_temp);
        MOV       0x29A, #0xC0       ;; 1 cycle
        MOVW      HL, #LWRD(_mac_union_4int)  ;; 1 cycle
        MOVW      DE, #LWRD(_b_phase+64)  ;; 1 cycle
        MOVW      AX, [DE]           ;; 1 cycle
        MOVW      [HL], AX           ;; 1 cycle
        MOVW      AX, [DE+0x02]      ;; 1 cycle
        MOVW      [HL+0x02], AX      ;; 1 cycle
        MOVW      AX, [DE+0x04]      ;; 1 cycle
        MOVW      [HL+0x04], AX      ;; 1 cycle
        MOVW      AX, [DE+0x06]      ;; 1 cycle
        MOVW      [HL+0x06], AX      ;; 1 cycle
        MOVW      AX, N:_mac_union_4int  ;; 1 cycle
        MOVW      0x290, AX          ;; 1 cycle
        MOVW      AX, N:_mac_union_4int+2  ;; 1 cycle
        MOVW      0x292, AX          ;; 1 cycle
        MOVW      AX, N:_mac_union_4int+4  ;; 1 cycle
        MOVW      0x294, AX          ;; 1 cycle
        MOVW      AX, N:_mac_union_4int+6  ;; 1 cycle
        MOVW      0x296, AX          ;; 1 cycle
        MOVW      AX, N:_b_phase+44  ;; 1 cycle
        MOVW      BC, AX             ;; 1 cycle
        SARW      AX, 0xF            ;; 1 cycle
        XCHW      AX, BC             ;; 1 cycle
        MOVW      N:_mac_union_2int, AX  ;; 1 cycle
        XCHW      AX, BC             ;; 1 cycle
        MOVW      N:_mac_union_2int+2, AX  ;; 1 cycle
        XCHW      AX, BC             ;; 1 cycle
        MOVW      AX, N:_mac_union_2int  ;; 1 cycle
        MOVW      0x28C, AX          ;; 1 cycle
        MOVW      AX, N:_mac_union_2int+2  ;; 1 cycle
        MOVW      0x28E, AX          ;; 1 cycle
        MOVW      AX, N:_b_phase+44  ;; 1 cycle
        MOVW      BC, AX             ;; 1 cycle
        SARW      AX, 0xF            ;; 1 cycle
        XCHW      AX, BC             ;; 1 cycle
        MOVW      N:_mac_union_2int, AX  ;; 1 cycle
        XCHW      AX, BC             ;; 1 cycle
        MOVW      N:_mac_union_2int+2, AX  ;; 1 cycle
        XCHW      AX, BC             ;; 1 cycle
        MOVW      AX, N:_mac_union_2int  ;; 1 cycle
        MOVW      0xFFF3C, AX        ;; 1 cycle
        MOVW      AX, N:_mac_union_2int+2  ;; 1 cycle
        MOVW      0xFFF3E, AX        ;; 1 cycle
        NOP                          ;; 1 cycle
        NOP                          ;; 1 cycle
        MOVW      AX, 0x290          ;; 1 cycle
        MOVW      N:_mac_union_4int, AX  ;; 1 cycle
        MOVW      AX, 0x292          ;; 1 cycle
        MOVW      N:_mac_union_4int+2, AX  ;; 1 cycle
        MOVW      AX, 0x294          ;; 1 cycle
        MOVW      N:_mac_union_4int+4, AX  ;; 1 cycle
        MOVW      AX, 0x296          ;; 1 cycle
        MOVW      N:_mac_union_4int+6, AX  ;; 1 cycle
        MOVW      HL, #LWRD(_b_phase+64)  ;; 1 cycle
        MOVW      DE, #LWRD(_mac_union_4int)  ;; 1 cycle
        MOVW      AX, [DE]           ;; 1 cycle
        MOVW      [HL], AX           ;; 1 cycle
        MOVW      AX, [DE+0x02]      ;; 1 cycle
        MOVW      [HL+0x02], AX      ;; 1 cycle
        MOVW      AX, [DE+0x04]      ;; 1 cycle
        MOVW      [HL+0x04], AX      ;; 1 cycle
        MOVW      AX, [DE+0x06]      ;; 1 cycle
        MOVW      [HL+0x06], AX      ;; 1 cycle
//  462     HWMultiplierAccSigned(n_phase.curr.sample, n_phase.curr.sample, n_phase.curr.rms_acc_cnt_temp);
        MOV       0x29A, #0xC0       ;; 1 cycle
        MOVW      HL, #LWRD(_mac_union_4int)  ;; 1 cycle
        MOVW      DE, #LWRD(_n_phase+26)  ;; 1 cycle
        MOVW      AX, [DE]           ;; 1 cycle
        MOVW      [HL], AX           ;; 1 cycle
        MOVW      AX, [DE+0x02]      ;; 1 cycle
        MOVW      [HL+0x02], AX      ;; 1 cycle
        MOVW      AX, [DE+0x04]      ;; 1 cycle
        MOVW      [HL+0x04], AX      ;; 1 cycle
        MOVW      AX, [DE+0x06]      ;; 1 cycle
        MOVW      [HL+0x06], AX      ;; 1 cycle
        MOVW      AX, N:_mac_union_4int  ;; 1 cycle
        MOVW      0x290, AX          ;; 1 cycle
        MOVW      AX, N:_mac_union_4int+2  ;; 1 cycle
        MOVW      0x292, AX          ;; 1 cycle
        MOVW      AX, N:_mac_union_4int+4  ;; 1 cycle
        MOVW      0x294, AX          ;; 1 cycle
        MOVW      AX, N:_mac_union_4int+6  ;; 1 cycle
        MOVW      0x296, AX          ;; 1 cycle
        MOVW      AX, N:_n_phase+6   ;; 1 cycle
        MOVW      BC, AX             ;; 1 cycle
        SARW      AX, 0xF            ;; 1 cycle
        XCHW      AX, BC             ;; 1 cycle
        MOVW      N:_mac_union_2int, AX  ;; 1 cycle
        XCHW      AX, BC             ;; 1 cycle
        MOVW      N:_mac_union_2int+2, AX  ;; 1 cycle
        XCHW      AX, BC             ;; 1 cycle
        MOVW      AX, N:_mac_union_2int  ;; 1 cycle
        MOVW      0x28C, AX          ;; 1 cycle
        MOVW      AX, N:_mac_union_2int+2  ;; 1 cycle
        MOVW      0x28E, AX          ;; 1 cycle
        MOVW      AX, N:_n_phase+6   ;; 1 cycle
        MOVW      BC, AX             ;; 1 cycle
        SARW      AX, 0xF            ;; 1 cycle
        XCHW      AX, BC             ;; 1 cycle
        MOVW      N:_mac_union_2int, AX  ;; 1 cycle
        XCHW      AX, BC             ;; 1 cycle
        MOVW      N:_mac_union_2int+2, AX  ;; 1 cycle
        XCHW      AX, BC             ;; 1 cycle
        MOVW      AX, N:_mac_union_2int  ;; 1 cycle
        MOVW      0xFFF3C, AX        ;; 1 cycle
        MOVW      AX, N:_mac_union_2int+2  ;; 1 cycle
        MOVW      0xFFF3E, AX        ;; 1 cycle
        NOP                          ;; 1 cycle
        NOP                          ;; 1 cycle
        MOVW      AX, 0x290          ;; 1 cycle
        MOVW      N:_mac_union_4int, AX  ;; 1 cycle
        MOVW      AX, 0x292          ;; 1 cycle
        MOVW      N:_mac_union_4int+2, AX  ;; 1 cycle
        MOVW      AX, 0x294          ;; 1 cycle
        MOVW      N:_mac_union_4int+4, AX  ;; 1 cycle
        MOVW      AX, 0x296          ;; 1 cycle
        MOVW      N:_mac_union_4int+6, AX  ;; 1 cycle
        MOVW      HL, #LWRD(_n_phase+26)  ;; 1 cycle
        MOVW      DE, #LWRD(_mac_union_4int)  ;; 1 cycle
        MOVW      AX, [DE]           ;; 1 cycle
        MOVW      [HL], AX           ;; 1 cycle
        MOVW      AX, [DE+0x02]      ;; 1 cycle
        MOVW      [HL+0x02], AX      ;; 1 cycle
        MOVW      AX, [DE+0x04]      ;; 1 cycle
        MOVW      [HL+0x04], AX      ;; 1 cycle
        MOVW      AX, [DE+0x06]      ;; 1 cycle
        MOVW      [HL+0x06], AX      ;; 1 cycle
//  463     
//  464     /* energy calculation accumulation */
//  465     HWMultiplierAccSigned(r_phase.vol.sample, r_phase.curr.sample, r_phase.active.acc_cnt_temp);
        MOV       0x29A, #0xC0       ;; 1 cycle
        MOVW      HL, #LWRD(_mac_union_4int)  ;; 1 cycle
        MOVW      DE, #LWRD(_r_phase+80)  ;; 1 cycle
        MOVW      AX, [DE]           ;; 1 cycle
        MOVW      [HL], AX           ;; 1 cycle
        MOVW      AX, [DE+0x02]      ;; 1 cycle
        MOVW      [HL+0x02], AX      ;; 1 cycle
        MOVW      AX, [DE+0x04]      ;; 1 cycle
        MOVW      [HL+0x04], AX      ;; 1 cycle
        MOVW      AX, [DE+0x06]      ;; 1 cycle
        MOVW      [HL+0x06], AX      ;; 1 cycle
        MOVW      AX, N:_mac_union_4int  ;; 1 cycle
        MOVW      0x290, AX          ;; 1 cycle
        MOVW      AX, N:_mac_union_4int+2  ;; 1 cycle
        MOVW      0x292, AX          ;; 1 cycle
        MOVW      AX, N:_mac_union_4int+4  ;; 1 cycle
        MOVW      0x294, AX          ;; 1 cycle
        MOVW      AX, N:_mac_union_4int+6  ;; 1 cycle
        MOVW      0x296, AX          ;; 1 cycle
        MOVW      AX, N:_r_phase+8   ;; 1 cycle
        MOVW      BC, AX             ;; 1 cycle
        SARW      AX, 0xF            ;; 1 cycle
        XCHW      AX, BC             ;; 1 cycle
        MOVW      N:_mac_union_2int, AX  ;; 1 cycle
        XCHW      AX, BC             ;; 1 cycle
        MOVW      N:_mac_union_2int+2, AX  ;; 1 cycle
        XCHW      AX, BC             ;; 1 cycle
        MOVW      AX, N:_mac_union_2int  ;; 1 cycle
        MOVW      0x28C, AX          ;; 1 cycle
        MOVW      AX, N:_mac_union_2int+2  ;; 1 cycle
        MOVW      0x28E, AX          ;; 1 cycle
        MOVW      AX, N:_r_phase+44  ;; 1 cycle
        MOVW      BC, AX             ;; 1 cycle
        SARW      AX, 0xF            ;; 1 cycle
        XCHW      AX, BC             ;; 1 cycle
        MOVW      N:_mac_union_2int, AX  ;; 1 cycle
        XCHW      AX, BC             ;; 1 cycle
        MOVW      N:_mac_union_2int+2, AX  ;; 1 cycle
        XCHW      AX, BC             ;; 1 cycle
        MOVW      AX, N:_mac_union_2int  ;; 1 cycle
        MOVW      0xFFF3C, AX        ;; 1 cycle
        MOVW      AX, N:_mac_union_2int+2  ;; 1 cycle
        MOVW      0xFFF3E, AX        ;; 1 cycle
        NOP                          ;; 1 cycle
        NOP                          ;; 1 cycle
        MOVW      AX, 0x290          ;; 1 cycle
        MOVW      N:_mac_union_4int, AX  ;; 1 cycle
        MOVW      AX, 0x292          ;; 1 cycle
        MOVW      N:_mac_union_4int+2, AX  ;; 1 cycle
        MOVW      AX, 0x294          ;; 1 cycle
        MOVW      N:_mac_union_4int+4, AX  ;; 1 cycle
        MOVW      AX, 0x296          ;; 1 cycle
        MOVW      N:_mac_union_4int+6, AX  ;; 1 cycle
        MOVW      HL, #LWRD(_r_phase+80)  ;; 1 cycle
        MOVW      DE, #LWRD(_mac_union_4int)  ;; 1 cycle
        MOVW      AX, [DE]           ;; 1 cycle
        MOVW      [HL], AX           ;; 1 cycle
        MOVW      AX, [DE+0x02]      ;; 1 cycle
        MOVW      [HL+0x02], AX      ;; 1 cycle
        MOVW      AX, [DE+0x04]      ;; 1 cycle
        MOVW      [HL+0x04], AX      ;; 1 cycle
        MOVW      AX, [DE+0x06]      ;; 1 cycle
        MOVW      [HL+0x06], AX      ;; 1 cycle
//  466     HWMultiplierAccSigned(y_phase.vol.sample, y_phase.curr.sample, y_phase.active.acc_cnt_temp);     
        MOV       0x29A, #0xC0       ;; 1 cycle
        MOVW      HL, #LWRD(_mac_union_4int)  ;; 1 cycle
        MOVW      DE, #LWRD(_y_phase+80)  ;; 1 cycle
        MOVW      AX, [DE]           ;; 1 cycle
        MOVW      [HL], AX           ;; 1 cycle
        MOVW      AX, [DE+0x02]      ;; 1 cycle
        MOVW      [HL+0x02], AX      ;; 1 cycle
        MOVW      AX, [DE+0x04]      ;; 1 cycle
        MOVW      [HL+0x04], AX      ;; 1 cycle
        MOVW      AX, [DE+0x06]      ;; 1 cycle
        MOVW      [HL+0x06], AX      ;; 1 cycle
        MOVW      AX, N:_mac_union_4int  ;; 1 cycle
        MOVW      0x290, AX          ;; 1 cycle
        MOVW      AX, N:_mac_union_4int+2  ;; 1 cycle
        MOVW      0x292, AX          ;; 1 cycle
        MOVW      AX, N:_mac_union_4int+4  ;; 1 cycle
        MOVW      0x294, AX          ;; 1 cycle
        MOVW      AX, N:_mac_union_4int+6  ;; 1 cycle
        MOVW      0x296, AX          ;; 1 cycle
        MOVW      AX, N:_y_phase+8   ;; 1 cycle
        MOVW      BC, AX             ;; 1 cycle
        SARW      AX, 0xF            ;; 1 cycle
        XCHW      AX, BC             ;; 1 cycle
        MOVW      N:_mac_union_2int, AX  ;; 1 cycle
        XCHW      AX, BC             ;; 1 cycle
        MOVW      N:_mac_union_2int+2, AX  ;; 1 cycle
        XCHW      AX, BC             ;; 1 cycle
        MOVW      AX, N:_mac_union_2int  ;; 1 cycle
        MOVW      0x28C, AX          ;; 1 cycle
        MOVW      AX, N:_mac_union_2int+2  ;; 1 cycle
        MOVW      0x28E, AX          ;; 1 cycle
        MOVW      AX, N:_y_phase+44  ;; 1 cycle
        MOVW      BC, AX             ;; 1 cycle
        SARW      AX, 0xF            ;; 1 cycle
        XCHW      AX, BC             ;; 1 cycle
        MOVW      N:_mac_union_2int, AX  ;; 1 cycle
        XCHW      AX, BC             ;; 1 cycle
        MOVW      N:_mac_union_2int+2, AX  ;; 1 cycle
        XCHW      AX, BC             ;; 1 cycle
        MOVW      AX, N:_mac_union_2int  ;; 1 cycle
        MOVW      0xFFF3C, AX        ;; 1 cycle
        MOVW      AX, N:_mac_union_2int+2  ;; 1 cycle
        MOVW      0xFFF3E, AX        ;; 1 cycle
        NOP                          ;; 1 cycle
        NOP                          ;; 1 cycle
        MOVW      AX, 0x290          ;; 1 cycle
        MOVW      N:_mac_union_4int, AX  ;; 1 cycle
        MOVW      AX, 0x292          ;; 1 cycle
        MOVW      N:_mac_union_4int+2, AX  ;; 1 cycle
        MOVW      AX, 0x294          ;; 1 cycle
        MOVW      N:_mac_union_4int+4, AX  ;; 1 cycle
        MOVW      AX, 0x296          ;; 1 cycle
        MOVW      N:_mac_union_4int+6, AX  ;; 1 cycle
        MOVW      HL, #LWRD(_y_phase+80)  ;; 1 cycle
        MOVW      DE, #LWRD(_mac_union_4int)  ;; 1 cycle
        MOVW      AX, [DE]           ;; 1 cycle
        MOVW      [HL], AX           ;; 1 cycle
        MOVW      AX, [DE+0x02]      ;; 1 cycle
        MOVW      [HL+0x02], AX      ;; 1 cycle
        MOVW      AX, [DE+0x04]      ;; 1 cycle
        MOVW      [HL+0x04], AX      ;; 1 cycle
        MOVW      AX, [DE+0x06]      ;; 1 cycle
        MOVW      [HL+0x06], AX      ;; 1 cycle
//  467     HWMultiplierAccSigned(b_phase.vol.sample, b_phase.curr.sample, b_phase.active.acc_cnt_temp);     
        MOV       0x29A, #0xC0       ;; 1 cycle
        MOVW      HL, #LWRD(_mac_union_4int)  ;; 1 cycle
        MOVW      DE, #LWRD(_b_phase+80)  ;; 1 cycle
        MOVW      AX, [DE]           ;; 1 cycle
        MOVW      [HL], AX           ;; 1 cycle
        MOVW      AX, [DE+0x02]      ;; 1 cycle
        MOVW      [HL+0x02], AX      ;; 1 cycle
        MOVW      AX, [DE+0x04]      ;; 1 cycle
        MOVW      [HL+0x04], AX      ;; 1 cycle
        MOVW      AX, [DE+0x06]      ;; 1 cycle
        MOVW      [HL+0x06], AX      ;; 1 cycle
        MOVW      AX, N:_mac_union_4int  ;; 1 cycle
        MOVW      0x290, AX          ;; 1 cycle
        MOVW      AX, N:_mac_union_4int+2  ;; 1 cycle
        MOVW      0x292, AX          ;; 1 cycle
        MOVW      AX, N:_mac_union_4int+4  ;; 1 cycle
        MOVW      0x294, AX          ;; 1 cycle
        MOVW      AX, N:_mac_union_4int+6  ;; 1 cycle
        MOVW      0x296, AX          ;; 1 cycle
        MOVW      AX, N:_b_phase+8   ;; 1 cycle
        MOVW      BC, AX             ;; 1 cycle
        SARW      AX, 0xF            ;; 1 cycle
        XCHW      AX, BC             ;; 1 cycle
        MOVW      N:_mac_union_2int, AX  ;; 1 cycle
        XCHW      AX, BC             ;; 1 cycle
        MOVW      N:_mac_union_2int+2, AX  ;; 1 cycle
        XCHW      AX, BC             ;; 1 cycle
        MOVW      AX, N:_mac_union_2int  ;; 1 cycle
        MOVW      0x28C, AX          ;; 1 cycle
        MOVW      AX, N:_mac_union_2int+2  ;; 1 cycle
        MOVW      0x28E, AX          ;; 1 cycle
        MOVW      AX, N:_b_phase+44  ;; 1 cycle
        MOVW      BC, AX             ;; 1 cycle
        SARW      AX, 0xF            ;; 1 cycle
        XCHW      AX, BC             ;; 1 cycle
        MOVW      N:_mac_union_2int, AX  ;; 1 cycle
        XCHW      AX, BC             ;; 1 cycle
        MOVW      N:_mac_union_2int+2, AX  ;; 1 cycle
        XCHW      AX, BC             ;; 1 cycle
        MOVW      AX, N:_mac_union_2int  ;; 1 cycle
        MOVW      0xFFF3C, AX        ;; 1 cycle
        MOVW      AX, N:_mac_union_2int+2  ;; 1 cycle
        MOVW      0xFFF3E, AX        ;; 1 cycle
        NOP                          ;; 1 cycle
        NOP                          ;; 1 cycle
        MOVW      AX, 0x290          ;; 1 cycle
        MOVW      N:_mac_union_4int, AX  ;; 1 cycle
        MOVW      AX, 0x292          ;; 1 cycle
        MOVW      N:_mac_union_4int+2, AX  ;; 1 cycle
        MOVW      AX, 0x294          ;; 1 cycle
        MOVW      N:_mac_union_4int+4, AX  ;; 1 cycle
        MOVW      AX, 0x296          ;; 1 cycle
        MOVW      N:_mac_union_4int+6, AX  ;; 1 cycle
        MOVW      HL, #LWRD(_b_phase+80)  ;; 1 cycle
        MOVW      DE, #LWRD(_mac_union_4int)  ;; 1 cycle
        MOVW      AX, [DE]           ;; 1 cycle
        MOVW      [HL], AX           ;; 1 cycle
        MOVW      AX, [DE+0x02]      ;; 1 cycle
        MOVW      [HL+0x02], AX      ;; 1 cycle
        MOVW      AX, [DE+0x04]      ;; 1 cycle
        MOVW      [HL+0x04], AX      ;; 1 cycle
        MOVW      AX, [DE+0x06]      ;; 1 cycle
        MOVW      [HL+0x06], AX      ;; 1 cycle
//  468     HWMultiplierAccSigned(r_phase.vol.sample90, r_phase.curr.sample, r_phase.reactive.acc_cnt_temp);     
        MOV       0x29A, #0xC0       ;; 1 cycle
        MOVW      HL, #LWRD(_mac_union_4int)  ;; 1 cycle
        MOVW      DE, #LWRD(_r_phase+120)  ;; 1 cycle
        MOVW      AX, [DE]           ;; 1 cycle
        MOVW      [HL], AX           ;; 1 cycle
        MOVW      AX, [DE+0x02]      ;; 1 cycle
        MOVW      [HL+0x02], AX      ;; 1 cycle
        MOVW      AX, [DE+0x04]      ;; 1 cycle
        MOVW      [HL+0x04], AX      ;; 1 cycle
        MOVW      AX, [DE+0x06]      ;; 1 cycle
        MOVW      [HL+0x06], AX      ;; 1 cycle
        MOVW      AX, N:_mac_union_4int  ;; 1 cycle
        MOVW      0x290, AX          ;; 1 cycle
        MOVW      AX, N:_mac_union_4int+2  ;; 1 cycle
        MOVW      0x292, AX          ;; 1 cycle
        MOVW      AX, N:_mac_union_4int+4  ;; 1 cycle
        MOVW      0x294, AX          ;; 1 cycle
        MOVW      AX, N:_mac_union_4int+6  ;; 1 cycle
        MOVW      0x296, AX          ;; 1 cycle
        MOVW      AX, N:_r_phase+12  ;; 1 cycle
        MOVW      BC, AX             ;; 1 cycle
        SARW      AX, 0xF            ;; 1 cycle
        XCHW      AX, BC             ;; 1 cycle
        MOVW      N:_mac_union_2int, AX  ;; 1 cycle
        XCHW      AX, BC             ;; 1 cycle
        MOVW      N:_mac_union_2int+2, AX  ;; 1 cycle
        XCHW      AX, BC             ;; 1 cycle
        MOVW      AX, N:_mac_union_2int  ;; 1 cycle
        MOVW      0x28C, AX          ;; 1 cycle
        MOVW      AX, N:_mac_union_2int+2  ;; 1 cycle
        MOVW      0x28E, AX          ;; 1 cycle
        MOVW      AX, N:_r_phase+44  ;; 1 cycle
        MOVW      BC, AX             ;; 1 cycle
        SARW      AX, 0xF            ;; 1 cycle
        XCHW      AX, BC             ;; 1 cycle
        MOVW      N:_mac_union_2int, AX  ;; 1 cycle
        XCHW      AX, BC             ;; 1 cycle
        MOVW      N:_mac_union_2int+2, AX  ;; 1 cycle
        XCHW      AX, BC             ;; 1 cycle
        MOVW      AX, N:_mac_union_2int  ;; 1 cycle
        MOVW      0xFFF3C, AX        ;; 1 cycle
        MOVW      AX, N:_mac_union_2int+2  ;; 1 cycle
        MOVW      0xFFF3E, AX        ;; 1 cycle
        NOP                          ;; 1 cycle
        NOP                          ;; 1 cycle
        MOVW      AX, 0x290          ;; 1 cycle
        MOVW      N:_mac_union_4int, AX  ;; 1 cycle
        MOVW      AX, 0x292          ;; 1 cycle
        MOVW      N:_mac_union_4int+2, AX  ;; 1 cycle
        MOVW      AX, 0x294          ;; 1 cycle
        MOVW      N:_mac_union_4int+4, AX  ;; 1 cycle
        MOVW      AX, 0x296          ;; 1 cycle
        MOVW      N:_mac_union_4int+6, AX  ;; 1 cycle
        MOVW      HL, #LWRD(_r_phase+120)  ;; 1 cycle
        MOVW      DE, #LWRD(_mac_union_4int)  ;; 1 cycle
        MOVW      AX, [DE]           ;; 1 cycle
        MOVW      [HL], AX           ;; 1 cycle
        MOVW      AX, [DE+0x02]      ;; 1 cycle
        MOVW      [HL+0x02], AX      ;; 1 cycle
        MOVW      AX, [DE+0x04]      ;; 1 cycle
        MOVW      [HL+0x04], AX      ;; 1 cycle
        MOVW      AX, [DE+0x06]      ;; 1 cycle
        MOVW      [HL+0x06], AX      ;; 1 cycle
//  469     HWMultiplierAccSigned(y_phase.vol.sample90, y_phase.curr.sample, y_phase.reactive.acc_cnt_temp);     
        MOV       0x29A, #0xC0       ;; 1 cycle
        MOVW      HL, #LWRD(_mac_union_4int)  ;; 1 cycle
        MOVW      DE, #LWRD(_y_phase+120)  ;; 1 cycle
        MOVW      AX, [DE]           ;; 1 cycle
        MOVW      [HL], AX           ;; 1 cycle
        MOVW      AX, [DE+0x02]      ;; 1 cycle
        MOVW      [HL+0x02], AX      ;; 1 cycle
        MOVW      AX, [DE+0x04]      ;; 1 cycle
        MOVW      [HL+0x04], AX      ;; 1 cycle
        MOVW      AX, [DE+0x06]      ;; 1 cycle
        MOVW      [HL+0x06], AX      ;; 1 cycle
        MOVW      AX, N:_mac_union_4int  ;; 1 cycle
        MOVW      0x290, AX          ;; 1 cycle
        MOVW      AX, N:_mac_union_4int+2  ;; 1 cycle
        MOVW      0x292, AX          ;; 1 cycle
        MOVW      AX, N:_mac_union_4int+4  ;; 1 cycle
        MOVW      0x294, AX          ;; 1 cycle
        MOVW      AX, N:_mac_union_4int+6  ;; 1 cycle
        MOVW      0x296, AX          ;; 1 cycle
        MOVW      AX, N:_y_phase+12  ;; 1 cycle
        MOVW      BC, AX             ;; 1 cycle
        SARW      AX, 0xF            ;; 1 cycle
        XCHW      AX, BC             ;; 1 cycle
        MOVW      N:_mac_union_2int, AX  ;; 1 cycle
        XCHW      AX, BC             ;; 1 cycle
        MOVW      N:_mac_union_2int+2, AX  ;; 1 cycle
        XCHW      AX, BC             ;; 1 cycle
        MOVW      AX, N:_mac_union_2int  ;; 1 cycle
        MOVW      0x28C, AX          ;; 1 cycle
        MOVW      AX, N:_mac_union_2int+2  ;; 1 cycle
        MOVW      0x28E, AX          ;; 1 cycle
        MOVW      AX, N:_y_phase+44  ;; 1 cycle
        MOVW      BC, AX             ;; 1 cycle
        SARW      AX, 0xF            ;; 1 cycle
        XCHW      AX, BC             ;; 1 cycle
        MOVW      N:_mac_union_2int, AX  ;; 1 cycle
        XCHW      AX, BC             ;; 1 cycle
        MOVW      N:_mac_union_2int+2, AX  ;; 1 cycle
        XCHW      AX, BC             ;; 1 cycle
        MOVW      AX, N:_mac_union_2int  ;; 1 cycle
        MOVW      0xFFF3C, AX        ;; 1 cycle
        MOVW      AX, N:_mac_union_2int+2  ;; 1 cycle
        MOVW      0xFFF3E, AX        ;; 1 cycle
        NOP                          ;; 1 cycle
        NOP                          ;; 1 cycle
        MOVW      AX, 0x290          ;; 1 cycle
        MOVW      N:_mac_union_4int, AX  ;; 1 cycle
        MOVW      AX, 0x292          ;; 1 cycle
        MOVW      N:_mac_union_4int+2, AX  ;; 1 cycle
        MOVW      AX, 0x294          ;; 1 cycle
        MOVW      N:_mac_union_4int+4, AX  ;; 1 cycle
        MOVW      AX, 0x296          ;; 1 cycle
        MOVW      N:_mac_union_4int+6, AX  ;; 1 cycle
        MOVW      HL, #LWRD(_y_phase+120)  ;; 1 cycle
        MOVW      DE, #LWRD(_mac_union_4int)  ;; 1 cycle
        MOVW      AX, [DE]           ;; 1 cycle
        MOVW      [HL], AX           ;; 1 cycle
        MOVW      AX, [DE+0x02]      ;; 1 cycle
        MOVW      [HL+0x02], AX      ;; 1 cycle
        MOVW      AX, [DE+0x04]      ;; 1 cycle
        MOVW      [HL+0x04], AX      ;; 1 cycle
        MOVW      AX, [DE+0x06]      ;; 1 cycle
        MOVW      [HL+0x06], AX      ;; 1 cycle
//  470     HWMultiplierAccSigned(b_phase.vol.sample90, b_phase.curr.sample, b_phase.reactive.acc_cnt_temp);     
        MOV       0x29A, #0xC0       ;; 1 cycle
        MOVW      HL, #LWRD(_mac_union_4int)  ;; 1 cycle
        MOVW      DE, #LWRD(_b_phase+120)  ;; 1 cycle
        MOVW      AX, [DE]           ;; 1 cycle
        MOVW      [HL], AX           ;; 1 cycle
        MOVW      AX, [DE+0x02]      ;; 1 cycle
        MOVW      [HL+0x02], AX      ;; 1 cycle
        MOVW      AX, [DE+0x04]      ;; 1 cycle
        MOVW      [HL+0x04], AX      ;; 1 cycle
        MOVW      AX, [DE+0x06]      ;; 1 cycle
        MOVW      [HL+0x06], AX      ;; 1 cycle
        MOVW      AX, N:_mac_union_4int  ;; 1 cycle
        MOVW      0x290, AX          ;; 1 cycle
        MOVW      AX, N:_mac_union_4int+2  ;; 1 cycle
        MOVW      0x292, AX          ;; 1 cycle
        MOVW      AX, N:_mac_union_4int+4  ;; 1 cycle
        MOVW      0x294, AX          ;; 1 cycle
        MOVW      AX, N:_mac_union_4int+6  ;; 1 cycle
        MOVW      0x296, AX          ;; 1 cycle
        MOVW      AX, N:_b_phase+12  ;; 1 cycle
        MOVW      BC, AX             ;; 1 cycle
        SARW      AX, 0xF            ;; 1 cycle
        XCHW      AX, BC             ;; 1 cycle
        MOVW      N:_mac_union_2int, AX  ;; 1 cycle
        XCHW      AX, BC             ;; 1 cycle
        MOVW      N:_mac_union_2int+2, AX  ;; 1 cycle
        XCHW      AX, BC             ;; 1 cycle
        MOVW      AX, N:_mac_union_2int  ;; 1 cycle
        MOVW      0x28C, AX          ;; 1 cycle
        MOVW      AX, N:_mac_union_2int+2  ;; 1 cycle
        MOVW      0x28E, AX          ;; 1 cycle
        MOVW      AX, N:_b_phase+44  ;; 1 cycle
        MOVW      BC, AX             ;; 1 cycle
        SARW      AX, 0xF            ;; 1 cycle
        XCHW      AX, BC             ;; 1 cycle
        MOVW      N:_mac_union_2int, AX  ;; 1 cycle
        XCHW      AX, BC             ;; 1 cycle
        MOVW      N:_mac_union_2int+2, AX  ;; 1 cycle
        XCHW      AX, BC             ;; 1 cycle
        MOVW      AX, N:_mac_union_2int  ;; 1 cycle
        MOVW      0xFFF3C, AX        ;; 1 cycle
        MOVW      AX, N:_mac_union_2int+2  ;; 1 cycle
        MOVW      0xFFF3E, AX        ;; 1 cycle
        NOP                          ;; 1 cycle
        NOP                          ;; 1 cycle
        MOVW      AX, 0x290          ;; 1 cycle
        MOVW      N:_mac_union_4int, AX  ;; 1 cycle
        MOVW      AX, 0x292          ;; 1 cycle
        MOVW      N:_mac_union_4int+2, AX  ;; 1 cycle
        MOVW      AX, 0x294          ;; 1 cycle
        MOVW      N:_mac_union_4int+4, AX  ;; 1 cycle
        MOVW      AX, 0x296          ;; 1 cycle
        MOVW      N:_mac_union_4int+6, AX  ;; 1 cycle
        MOVW      HL, #LWRD(_b_phase+120)  ;; 1 cycle
        MOVW      DE, #LWRD(_mac_union_4int)  ;; 1 cycle
        MOVW      AX, [DE]           ;; 1 cycle
        MOVW      [HL], AX           ;; 1 cycle
        MOVW      AX, [DE+0x02]      ;; 1 cycle
        MOVW      [HL+0x02], AX      ;; 1 cycle
        MOVW      AX, [DE+0x04]      ;; 1 cycle
        MOVW      [HL+0x04], AX      ;; 1 cycle
        MOVW      AX, [DE+0x06]      ;; 1 cycle
        MOVW      [HL+0x06], AX      ;; 1 cycle
//  471     
//  472     if(flag_thd_start_sampling == 1 && cal_done_f == 1)
        MOVW      HL, #LWRD(_flag_thd1)  ;; 1 cycle
        MOV1      CY, [HL].6         ;; 1 cycle
        BNC       ??power_filter_22  ;; 4 cycles
        ; ------------------------------------- Block: 825 cycles
        CMP       N:_cal_done_f, #0x1  ;; 1 cycle
        SKNZ                         ;; 1 cycle
          CFI FunCall _thd_accumulation
        ; ------------------------------------- Block: 2 cycles
//  473     {
//  474         thd_accumulation();
        CALL      _thd_accumulation  ;; 3 cycles
        ; ------------------------------------- Block: 3 cycles
//  475     }
//  476     /* Calibration */
//  477     if(cal_done_f != 1)
??power_filter_22:
        CMP       N:_cal_done_f, #0x1  ;; 1 cycle
        SKNZ                         ;; 4 cycles
        BR        N:??power_filter_23  ;; 4 cycles
        ; ------------------------------------- Block: 5 cycles
//  478     {
//  479         HWMultiplierAccSigned(cal_RPh.l_shift.vol.sample,cal_RPh.curr_sample,cal_RPh.l_shift.active.acc_cnt_temp);
        MOV       0x29A, #0xC0       ;; 1 cycle
        MOVW      HL, #LWRD(_mac_union_4int)  ;; 1 cycle
        MOVW      DE, #LWRD(_cal_RPh+26)  ;; 1 cycle
        MOVW      AX, [DE]           ;; 1 cycle
        MOVW      [HL], AX           ;; 1 cycle
        MOVW      AX, [DE+0x02]      ;; 1 cycle
        MOVW      [HL+0x02], AX      ;; 1 cycle
        MOVW      AX, [DE+0x04]      ;; 1 cycle
        MOVW      [HL+0x04], AX      ;; 1 cycle
        MOVW      AX, [DE+0x06]      ;; 1 cycle
        MOVW      [HL+0x06], AX      ;; 1 cycle
        MOVW      AX, N:_mac_union_4int  ;; 1 cycle
        MOVW      0x290, AX          ;; 1 cycle
        MOVW      AX, N:_mac_union_4int+2  ;; 1 cycle
        MOVW      0x292, AX          ;; 1 cycle
        MOVW      AX, N:_mac_union_4int+4  ;; 1 cycle
        MOVW      0x294, AX          ;; 1 cycle
        MOVW      AX, N:_mac_union_4int+6  ;; 1 cycle
        MOVW      0x296, AX          ;; 1 cycle
        MOVW      AX, N:_cal_RPh+10  ;; 1 cycle
        MOVW      BC, AX             ;; 1 cycle
        SARW      AX, 0xF            ;; 1 cycle
        XCHW      AX, BC             ;; 1 cycle
        MOVW      N:_mac_union_2int, AX  ;; 1 cycle
        XCHW      AX, BC             ;; 1 cycle
        MOVW      N:_mac_union_2int+2, AX  ;; 1 cycle
        XCHW      AX, BC             ;; 1 cycle
        MOVW      AX, N:_mac_union_2int  ;; 1 cycle
        MOVW      0x28C, AX          ;; 1 cycle
        MOVW      AX, N:_mac_union_2int+2  ;; 1 cycle
        MOVW      0x28E, AX          ;; 1 cycle
        MOVW      AX, N:_cal_RPh+4   ;; 1 cycle
        MOVW      BC, AX             ;; 1 cycle
        SARW      AX, 0xF            ;; 1 cycle
        XCHW      AX, BC             ;; 1 cycle
        MOVW      N:_mac_union_2int, AX  ;; 1 cycle
        XCHW      AX, BC             ;; 1 cycle
        MOVW      N:_mac_union_2int+2, AX  ;; 1 cycle
        XCHW      AX, BC             ;; 1 cycle
        MOVW      AX, N:_mac_union_2int  ;; 1 cycle
        MOVW      0xFFF3C, AX        ;; 1 cycle
        MOVW      AX, N:_mac_union_2int+2  ;; 1 cycle
        MOVW      0xFFF3E, AX        ;; 1 cycle
        NOP                          ;; 1 cycle
        NOP                          ;; 1 cycle
        MOVW      AX, 0x290          ;; 1 cycle
        MOVW      N:_mac_union_4int, AX  ;; 1 cycle
        MOVW      AX, 0x292          ;; 1 cycle
        MOVW      N:_mac_union_4int+2, AX  ;; 1 cycle
        MOVW      AX, 0x294          ;; 1 cycle
        MOVW      N:_mac_union_4int+4, AX  ;; 1 cycle
        MOVW      AX, 0x296          ;; 1 cycle
        MOVW      N:_mac_union_4int+6, AX  ;; 1 cycle
        MOVW      HL, #LWRD(_cal_RPh+26)  ;; 1 cycle
        MOVW      DE, #LWRD(_mac_union_4int)  ;; 1 cycle
        MOVW      AX, [DE]           ;; 1 cycle
        MOVW      [HL], AX           ;; 1 cycle
        MOVW      AX, [DE+0x02]      ;; 1 cycle
        MOVW      [HL+0x02], AX      ;; 1 cycle
        MOVW      AX, [DE+0x04]      ;; 1 cycle
        MOVW      [HL+0x04], AX      ;; 1 cycle
        MOVW      AX, [DE+0x06]      ;; 1 cycle
        MOVW      [HL+0x06], AX      ;; 1 cycle
//  480         HWMultiplierAccSigned(cal_YPh.l_shift.vol.sample,cal_YPh.curr_sample,cal_YPh.l_shift.active.acc_cnt_temp);
        MOV       0x29A, #0xC0       ;; 1 cycle
        MOVW      HL, #LWRD(_mac_union_4int)  ;; 1 cycle
        MOVW      DE, #LWRD(_cal_YPh+26)  ;; 1 cycle
        MOVW      AX, [DE]           ;; 1 cycle
        MOVW      [HL], AX           ;; 1 cycle
        MOVW      AX, [DE+0x02]      ;; 1 cycle
        MOVW      [HL+0x02], AX      ;; 1 cycle
        MOVW      AX, [DE+0x04]      ;; 1 cycle
        MOVW      [HL+0x04], AX      ;; 1 cycle
        MOVW      AX, [DE+0x06]      ;; 1 cycle
        MOVW      [HL+0x06], AX      ;; 1 cycle
        MOVW      AX, N:_mac_union_4int  ;; 1 cycle
        MOVW      0x290, AX          ;; 1 cycle
        MOVW      AX, N:_mac_union_4int+2  ;; 1 cycle
        MOVW      0x292, AX          ;; 1 cycle
        MOVW      AX, N:_mac_union_4int+4  ;; 1 cycle
        MOVW      0x294, AX          ;; 1 cycle
        MOVW      AX, N:_mac_union_4int+6  ;; 1 cycle
        MOVW      0x296, AX          ;; 1 cycle
        MOVW      AX, N:_cal_YPh+10  ;; 1 cycle
        MOVW      BC, AX             ;; 1 cycle
        SARW      AX, 0xF            ;; 1 cycle
        XCHW      AX, BC             ;; 1 cycle
        MOVW      N:_mac_union_2int, AX  ;; 1 cycle
        XCHW      AX, BC             ;; 1 cycle
        MOVW      N:_mac_union_2int+2, AX  ;; 1 cycle
        XCHW      AX, BC             ;; 1 cycle
        MOVW      AX, N:_mac_union_2int  ;; 1 cycle
        MOVW      0x28C, AX          ;; 1 cycle
        MOVW      AX, N:_mac_union_2int+2  ;; 1 cycle
        MOVW      0x28E, AX          ;; 1 cycle
        MOVW      AX, N:_cal_YPh+4   ;; 1 cycle
        MOVW      BC, AX             ;; 1 cycle
        SARW      AX, 0xF            ;; 1 cycle
        XCHW      AX, BC             ;; 1 cycle
        MOVW      N:_mac_union_2int, AX  ;; 1 cycle
        XCHW      AX, BC             ;; 1 cycle
        MOVW      N:_mac_union_2int+2, AX  ;; 1 cycle
        XCHW      AX, BC             ;; 1 cycle
        MOVW      AX, N:_mac_union_2int  ;; 1 cycle
        MOVW      0xFFF3C, AX        ;; 1 cycle
        MOVW      AX, N:_mac_union_2int+2  ;; 1 cycle
        MOVW      0xFFF3E, AX        ;; 1 cycle
        NOP                          ;; 1 cycle
        NOP                          ;; 1 cycle
        MOVW      AX, 0x290          ;; 1 cycle
        MOVW      N:_mac_union_4int, AX  ;; 1 cycle
        MOVW      AX, 0x292          ;; 1 cycle
        MOVW      N:_mac_union_4int+2, AX  ;; 1 cycle
        MOVW      AX, 0x294          ;; 1 cycle
        MOVW      N:_mac_union_4int+4, AX  ;; 1 cycle
        MOVW      AX, 0x296          ;; 1 cycle
        MOVW      N:_mac_union_4int+6, AX  ;; 1 cycle
        MOVW      HL, #LWRD(_cal_YPh+26)  ;; 1 cycle
        MOVW      DE, #LWRD(_mac_union_4int)  ;; 1 cycle
        MOVW      AX, [DE]           ;; 1 cycle
        MOVW      [HL], AX           ;; 1 cycle
        MOVW      AX, [DE+0x02]      ;; 1 cycle
        MOVW      [HL+0x02], AX      ;; 1 cycle
        MOVW      AX, [DE+0x04]      ;; 1 cycle
        MOVW      [HL+0x04], AX      ;; 1 cycle
        MOVW      AX, [DE+0x06]      ;; 1 cycle
        MOVW      [HL+0x06], AX      ;; 1 cycle
//  481         HWMultiplierAccSigned(cal_BPh.l_shift.vol.sample,cal_BPh.curr_sample,cal_BPh.l_shift.active.acc_cnt_temp);
        MOV       0x29A, #0xC0       ;; 1 cycle
        MOVW      HL, #LWRD(_mac_union_4int)  ;; 1 cycle
        MOVW      DE, #LWRD(_cal_BPh+26)  ;; 1 cycle
        MOVW      AX, [DE]           ;; 1 cycle
        MOVW      [HL], AX           ;; 1 cycle
        MOVW      AX, [DE+0x02]      ;; 1 cycle
        MOVW      [HL+0x02], AX      ;; 1 cycle
        MOVW      AX, [DE+0x04]      ;; 1 cycle
        MOVW      [HL+0x04], AX      ;; 1 cycle
        MOVW      AX, [DE+0x06]      ;; 1 cycle
        MOVW      [HL+0x06], AX      ;; 1 cycle
        MOVW      AX, N:_mac_union_4int  ;; 1 cycle
        MOVW      0x290, AX          ;; 1 cycle
        MOVW      AX, N:_mac_union_4int+2  ;; 1 cycle
        MOVW      0x292, AX          ;; 1 cycle
        MOVW      AX, N:_mac_union_4int+4  ;; 1 cycle
        MOVW      0x294, AX          ;; 1 cycle
        MOVW      AX, N:_mac_union_4int+6  ;; 1 cycle
        MOVW      0x296, AX          ;; 1 cycle
        MOVW      AX, N:_cal_BPh+10  ;; 1 cycle
        MOVW      BC, AX             ;; 1 cycle
        SARW      AX, 0xF            ;; 1 cycle
        XCHW      AX, BC             ;; 1 cycle
        MOVW      N:_mac_union_2int, AX  ;; 1 cycle
        XCHW      AX, BC             ;; 1 cycle
        MOVW      N:_mac_union_2int+2, AX  ;; 1 cycle
        XCHW      AX, BC             ;; 1 cycle
        MOVW      AX, N:_mac_union_2int  ;; 1 cycle
        MOVW      0x28C, AX          ;; 1 cycle
        MOVW      AX, N:_mac_union_2int+2  ;; 1 cycle
        MOVW      0x28E, AX          ;; 1 cycle
        MOVW      AX, N:_cal_BPh+4   ;; 1 cycle
        MOVW      BC, AX             ;; 1 cycle
        SARW      AX, 0xF            ;; 1 cycle
        XCHW      AX, BC             ;; 1 cycle
        MOVW      N:_mac_union_2int, AX  ;; 1 cycle
        XCHW      AX, BC             ;; 1 cycle
        MOVW      N:_mac_union_2int+2, AX  ;; 1 cycle
        XCHW      AX, BC             ;; 1 cycle
        MOVW      AX, N:_mac_union_2int  ;; 1 cycle
        MOVW      0xFFF3C, AX        ;; 1 cycle
        MOVW      AX, N:_mac_union_2int+2  ;; 1 cycle
        MOVW      0xFFF3E, AX        ;; 1 cycle
        NOP                          ;; 1 cycle
        NOP                          ;; 1 cycle
        MOVW      AX, 0x290          ;; 1 cycle
        MOVW      N:_mac_union_4int, AX  ;; 1 cycle
        MOVW      AX, 0x292          ;; 1 cycle
        MOVW      N:_mac_union_4int+2, AX  ;; 1 cycle
        MOVW      AX, 0x294          ;; 1 cycle
        MOVW      N:_mac_union_4int+4, AX  ;; 1 cycle
        MOVW      AX, 0x296          ;; 1 cycle
        MOVW      N:_mac_union_4int+6, AX  ;; 1 cycle
        MOVW      HL, #LWRD(_cal_BPh+26)  ;; 1 cycle
        MOVW      DE, #LWRD(_mac_union_4int)  ;; 1 cycle
        MOVW      AX, [DE]           ;; 1 cycle
        MOVW      [HL], AX           ;; 1 cycle
        MOVW      AX, [DE+0x02]      ;; 1 cycle
        MOVW      [HL+0x02], AX      ;; 1 cycle
        MOVW      AX, [DE+0x04]      ;; 1 cycle
        MOVW      [HL+0x04], AX      ;; 1 cycle
        MOVW      AX, [DE+0x06]      ;; 1 cycle
        MOVW      [HL+0x06], AX      ;; 1 cycle
//  482         HWMultiplierAccSigned(cal_RPh.r_shift.vol.sample,cal_RPh.curr_sample,cal_RPh.r_shift.active.acc_cnt_temp);
        MOV       0x29A, #0xC0       ;; 1 cycle
        MOVW      HL, #LWRD(_mac_union_4int)  ;; 1 cycle
        MOVW      DE, #LWRD(_cal_RPh+70)  ;; 1 cycle
        MOVW      AX, [DE]           ;; 1 cycle
        MOVW      [HL], AX           ;; 1 cycle
        MOVW      AX, [DE+0x02]      ;; 1 cycle
        MOVW      [HL+0x02], AX      ;; 1 cycle
        MOVW      AX, [DE+0x04]      ;; 1 cycle
        MOVW      [HL+0x04], AX      ;; 1 cycle
        MOVW      AX, [DE+0x06]      ;; 1 cycle
        MOVW      [HL+0x06], AX      ;; 1 cycle
        MOVW      AX, N:_mac_union_4int  ;; 1 cycle
        MOVW      0x290, AX          ;; 1 cycle
        MOVW      AX, N:_mac_union_4int+2  ;; 1 cycle
        MOVW      0x292, AX          ;; 1 cycle
        MOVW      AX, N:_mac_union_4int+4  ;; 1 cycle
        MOVW      0x294, AX          ;; 1 cycle
        MOVW      AX, N:_mac_union_4int+6  ;; 1 cycle
        MOVW      0x296, AX          ;; 1 cycle
        MOVW      AX, N:_cal_RPh+54  ;; 1 cycle
        MOVW      BC, AX             ;; 1 cycle
        SARW      AX, 0xF            ;; 1 cycle
        XCHW      AX, BC             ;; 1 cycle
        MOVW      N:_mac_union_2int, AX  ;; 1 cycle
        XCHW      AX, BC             ;; 1 cycle
        MOVW      N:_mac_union_2int+2, AX  ;; 1 cycle
        XCHW      AX, BC             ;; 1 cycle
        MOVW      AX, N:_mac_union_2int  ;; 1 cycle
        MOVW      0x28C, AX          ;; 1 cycle
        MOVW      AX, N:_mac_union_2int+2  ;; 1 cycle
        MOVW      0x28E, AX          ;; 1 cycle
        MOVW      AX, N:_cal_RPh+4   ;; 1 cycle
        MOVW      BC, AX             ;; 1 cycle
        SARW      AX, 0xF            ;; 1 cycle
        XCHW      AX, BC             ;; 1 cycle
        MOVW      N:_mac_union_2int, AX  ;; 1 cycle
        XCHW      AX, BC             ;; 1 cycle
        MOVW      N:_mac_union_2int+2, AX  ;; 1 cycle
        XCHW      AX, BC             ;; 1 cycle
        MOVW      AX, N:_mac_union_2int  ;; 1 cycle
        MOVW      0xFFF3C, AX        ;; 1 cycle
        MOVW      AX, N:_mac_union_2int+2  ;; 1 cycle
        MOVW      0xFFF3E, AX        ;; 1 cycle
        NOP                          ;; 1 cycle
        NOP                          ;; 1 cycle
        MOVW      AX, 0x290          ;; 1 cycle
        MOVW      N:_mac_union_4int, AX  ;; 1 cycle
        MOVW      AX, 0x292          ;; 1 cycle
        MOVW      N:_mac_union_4int+2, AX  ;; 1 cycle
        MOVW      AX, 0x294          ;; 1 cycle
        MOVW      N:_mac_union_4int+4, AX  ;; 1 cycle
        MOVW      AX, 0x296          ;; 1 cycle
        MOVW      N:_mac_union_4int+6, AX  ;; 1 cycle
        MOVW      HL, #LWRD(_cal_RPh+70)  ;; 1 cycle
        MOVW      DE, #LWRD(_mac_union_4int)  ;; 1 cycle
        MOVW      AX, [DE]           ;; 1 cycle
        MOVW      [HL], AX           ;; 1 cycle
        MOVW      AX, [DE+0x02]      ;; 1 cycle
        MOVW      [HL+0x02], AX      ;; 1 cycle
        MOVW      AX, [DE+0x04]      ;; 1 cycle
        MOVW      [HL+0x04], AX      ;; 1 cycle
        MOVW      AX, [DE+0x06]      ;; 1 cycle
        MOVW      [HL+0x06], AX      ;; 1 cycle
//  483         HWMultiplierAccSigned(cal_YPh.r_shift.vol.sample,cal_YPh.curr_sample,cal_YPh.r_shift.active.acc_cnt_temp);
        MOV       0x29A, #0xC0       ;; 1 cycle
        MOVW      HL, #LWRD(_mac_union_4int)  ;; 1 cycle
        MOVW      DE, #LWRD(_cal_YPh+70)  ;; 1 cycle
        MOVW      AX, [DE]           ;; 1 cycle
        MOVW      [HL], AX           ;; 1 cycle
        MOVW      AX, [DE+0x02]      ;; 1 cycle
        MOVW      [HL+0x02], AX      ;; 1 cycle
        MOVW      AX, [DE+0x04]      ;; 1 cycle
        MOVW      [HL+0x04], AX      ;; 1 cycle
        MOVW      AX, [DE+0x06]      ;; 1 cycle
        MOVW      [HL+0x06], AX      ;; 1 cycle
        MOVW      AX, N:_mac_union_4int  ;; 1 cycle
        MOVW      0x290, AX          ;; 1 cycle
        MOVW      AX, N:_mac_union_4int+2  ;; 1 cycle
        MOVW      0x292, AX          ;; 1 cycle
        MOVW      AX, N:_mac_union_4int+4  ;; 1 cycle
        MOVW      0x294, AX          ;; 1 cycle
        MOVW      AX, N:_mac_union_4int+6  ;; 1 cycle
        MOVW      0x296, AX          ;; 1 cycle
        MOVW      AX, N:_cal_YPh+54  ;; 1 cycle
        MOVW      BC, AX             ;; 1 cycle
        SARW      AX, 0xF            ;; 1 cycle
        XCHW      AX, BC             ;; 1 cycle
        MOVW      N:_mac_union_2int, AX  ;; 1 cycle
        XCHW      AX, BC             ;; 1 cycle
        MOVW      N:_mac_union_2int+2, AX  ;; 1 cycle
        XCHW      AX, BC             ;; 1 cycle
        MOVW      AX, N:_mac_union_2int  ;; 1 cycle
        MOVW      0x28C, AX          ;; 1 cycle
        MOVW      AX, N:_mac_union_2int+2  ;; 1 cycle
        MOVW      0x28E, AX          ;; 1 cycle
        MOVW      AX, N:_cal_YPh+4   ;; 1 cycle
        MOVW      BC, AX             ;; 1 cycle
        SARW      AX, 0xF            ;; 1 cycle
        XCHW      AX, BC             ;; 1 cycle
        MOVW      N:_mac_union_2int, AX  ;; 1 cycle
        XCHW      AX, BC             ;; 1 cycle
        MOVW      N:_mac_union_2int+2, AX  ;; 1 cycle
        XCHW      AX, BC             ;; 1 cycle
        MOVW      AX, N:_mac_union_2int  ;; 1 cycle
        MOVW      0xFFF3C, AX        ;; 1 cycle
        MOVW      AX, N:_mac_union_2int+2  ;; 1 cycle
        MOVW      0xFFF3E, AX        ;; 1 cycle
        NOP                          ;; 1 cycle
        NOP                          ;; 1 cycle
        MOVW      AX, 0x290          ;; 1 cycle
        MOVW      N:_mac_union_4int, AX  ;; 1 cycle
        MOVW      AX, 0x292          ;; 1 cycle
        MOVW      N:_mac_union_4int+2, AX  ;; 1 cycle
        MOVW      AX, 0x294          ;; 1 cycle
        MOVW      N:_mac_union_4int+4, AX  ;; 1 cycle
        MOVW      AX, 0x296          ;; 1 cycle
        MOVW      N:_mac_union_4int+6, AX  ;; 1 cycle
        MOVW      HL, #LWRD(_cal_YPh+70)  ;; 1 cycle
        MOVW      DE, #LWRD(_mac_union_4int)  ;; 1 cycle
        MOVW      AX, [DE]           ;; 1 cycle
        MOVW      [HL], AX           ;; 1 cycle
        MOVW      AX, [DE+0x02]      ;; 1 cycle
        MOVW      [HL+0x02], AX      ;; 1 cycle
        MOVW      AX, [DE+0x04]      ;; 1 cycle
        MOVW      [HL+0x04], AX      ;; 1 cycle
        MOVW      AX, [DE+0x06]      ;; 1 cycle
        MOVW      [HL+0x06], AX      ;; 1 cycle
//  484         HWMultiplierAccSigned(cal_BPh.r_shift.vol.sample,cal_BPh.curr_sample,cal_BPh.r_shift.active.acc_cnt_temp);
        MOV       0x29A, #0xC0       ;; 1 cycle
        MOVW      HL, #LWRD(_mac_union_4int)  ;; 1 cycle
        MOVW      DE, #LWRD(_cal_BPh+70)  ;; 1 cycle
        MOVW      AX, [DE]           ;; 1 cycle
        MOVW      [HL], AX           ;; 1 cycle
        MOVW      AX, [DE+0x02]      ;; 1 cycle
        MOVW      [HL+0x02], AX      ;; 1 cycle
        MOVW      AX, [DE+0x04]      ;; 1 cycle
        MOVW      [HL+0x04], AX      ;; 1 cycle
        MOVW      AX, [DE+0x06]      ;; 1 cycle
        MOVW      [HL+0x06], AX      ;; 1 cycle
        MOVW      AX, N:_mac_union_4int  ;; 1 cycle
        MOVW      0x290, AX          ;; 1 cycle
        MOVW      AX, N:_mac_union_4int+2  ;; 1 cycle
        MOVW      0x292, AX          ;; 1 cycle
        MOVW      AX, N:_mac_union_4int+4  ;; 1 cycle
        MOVW      0x294, AX          ;; 1 cycle
        MOVW      AX, N:_mac_union_4int+6  ;; 1 cycle
        MOVW      0x296, AX          ;; 1 cycle
        MOVW      AX, N:_cal_BPh+54  ;; 1 cycle
        MOVW      BC, AX             ;; 1 cycle
        SARW      AX, 0xF            ;; 1 cycle
        XCHW      AX, BC             ;; 1 cycle
        MOVW      N:_mac_union_2int, AX  ;; 1 cycle
        XCHW      AX, BC             ;; 1 cycle
        MOVW      N:_mac_union_2int+2, AX  ;; 1 cycle
        XCHW      AX, BC             ;; 1 cycle
        MOVW      AX, N:_mac_union_2int  ;; 1 cycle
        MOVW      0x28C, AX          ;; 1 cycle
        MOVW      AX, N:_mac_union_2int+2  ;; 1 cycle
        MOVW      0x28E, AX          ;; 1 cycle
        MOVW      AX, N:_cal_BPh+4   ;; 1 cycle
        MOVW      BC, AX             ;; 1 cycle
        SARW      AX, 0xF            ;; 1 cycle
        XCHW      AX, BC             ;; 1 cycle
        MOVW      N:_mac_union_2int, AX  ;; 1 cycle
        XCHW      AX, BC             ;; 1 cycle
        MOVW      N:_mac_union_2int+2, AX  ;; 1 cycle
        XCHW      AX, BC             ;; 1 cycle
        MOVW      AX, N:_mac_union_2int  ;; 1 cycle
        MOVW      0xFFF3C, AX        ;; 1 cycle
        MOVW      AX, N:_mac_union_2int+2  ;; 1 cycle
        MOVW      0xFFF3E, AX        ;; 1 cycle
        NOP                          ;; 1 cycle
        NOP                          ;; 1 cycle
        MOVW      AX, 0x290          ;; 1 cycle
        MOVW      N:_mac_union_4int, AX  ;; 1 cycle
        MOVW      AX, 0x292          ;; 1 cycle
        MOVW      N:_mac_union_4int+2, AX  ;; 1 cycle
        MOVW      AX, 0x294          ;; 1 cycle
        MOVW      N:_mac_union_4int+4, AX  ;; 1 cycle
        MOVW      AX, 0x296          ;; 1 cycle
        MOVW      N:_mac_union_4int+6, AX  ;; 1 cycle
        MOVW      HL, #LWRD(_cal_BPh+70)  ;; 1 cycle
        MOVW      DE, #LWRD(_mac_union_4int)  ;; 1 cycle
        MOVW      AX, [DE]           ;; 1 cycle
        MOVW      [HL], AX           ;; 1 cycle
        MOVW      AX, [DE+0x02]      ;; 1 cycle
        MOVW      [HL+0x02], AX      ;; 1 cycle
        MOVW      AX, [DE+0x04]      ;; 1 cycle
        MOVW      [HL+0x04], AX      ;; 1 cycle
        MOVW      AX, [DE+0x06]      ;; 1 cycle
        MOVW      [HL+0x06], AX      ;; 1 cycle
//  485         HWMultiplierAccSigned(cal_RPh.l_shift.vol.sample90,cal_RPh.curr_sample,cal_RPh.l_shift.reactive.acc_cnt_temp);
        MOV       0x29A, #0xC0       ;; 1 cycle
        MOVW      HL, #LWRD(_mac_union_4int)  ;; 1 cycle
        MOVW      DE, #LWRD(_cal_RPh+46)  ;; 1 cycle
        MOVW      AX, [DE]           ;; 1 cycle
        MOVW      [HL], AX           ;; 1 cycle
        MOVW      AX, [DE+0x02]      ;; 1 cycle
        MOVW      [HL+0x02], AX      ;; 1 cycle
        MOVW      AX, [DE+0x04]      ;; 1 cycle
        MOVW      [HL+0x04], AX      ;; 1 cycle
        MOVW      AX, [DE+0x06]      ;; 1 cycle
        MOVW      [HL+0x06], AX      ;; 1 cycle
        MOVW      AX, N:_mac_union_4int  ;; 1 cycle
        MOVW      0x290, AX          ;; 1 cycle
        MOVW      AX, N:_mac_union_4int+2  ;; 1 cycle
        MOVW      0x292, AX          ;; 1 cycle
        MOVW      AX, N:_mac_union_4int+4  ;; 1 cycle
        MOVW      0x294, AX          ;; 1 cycle
        MOVW      AX, N:_mac_union_4int+6  ;; 1 cycle
        MOVW      0x296, AX          ;; 1 cycle
        MOVW      AX, N:_cal_RPh+12  ;; 1 cycle
        MOVW      BC, AX             ;; 1 cycle
        SARW      AX, 0xF            ;; 1 cycle
        XCHW      AX, BC             ;; 1 cycle
        MOVW      N:_mac_union_2int, AX  ;; 1 cycle
        XCHW      AX, BC             ;; 1 cycle
        MOVW      N:_mac_union_2int+2, AX  ;; 1 cycle
        XCHW      AX, BC             ;; 1 cycle
        MOVW      AX, N:_mac_union_2int  ;; 1 cycle
        MOVW      0x28C, AX          ;; 1 cycle
        MOVW      AX, N:_mac_union_2int+2  ;; 1 cycle
        MOVW      0x28E, AX          ;; 1 cycle
        MOVW      AX, N:_cal_RPh+4   ;; 1 cycle
        MOVW      BC, AX             ;; 1 cycle
        SARW      AX, 0xF            ;; 1 cycle
        XCHW      AX, BC             ;; 1 cycle
        MOVW      N:_mac_union_2int, AX  ;; 1 cycle
        XCHW      AX, BC             ;; 1 cycle
        MOVW      N:_mac_union_2int+2, AX  ;; 1 cycle
        XCHW      AX, BC             ;; 1 cycle
        MOVW      AX, N:_mac_union_2int  ;; 1 cycle
        MOVW      0xFFF3C, AX        ;; 1 cycle
        MOVW      AX, N:_mac_union_2int+2  ;; 1 cycle
        MOVW      0xFFF3E, AX        ;; 1 cycle
        NOP                          ;; 1 cycle
        NOP                          ;; 1 cycle
        MOVW      AX, 0x290          ;; 1 cycle
        MOVW      N:_mac_union_4int, AX  ;; 1 cycle
        MOVW      AX, 0x292          ;; 1 cycle
        MOVW      N:_mac_union_4int+2, AX  ;; 1 cycle
        MOVW      AX, 0x294          ;; 1 cycle
        MOVW      N:_mac_union_4int+4, AX  ;; 1 cycle
        MOVW      AX, 0x296          ;; 1 cycle
        MOVW      N:_mac_union_4int+6, AX  ;; 1 cycle
        MOVW      HL, #LWRD(_cal_RPh+46)  ;; 1 cycle
        MOVW      DE, #LWRD(_mac_union_4int)  ;; 1 cycle
        MOVW      AX, [DE]           ;; 1 cycle
        MOVW      [HL], AX           ;; 1 cycle
        MOVW      AX, [DE+0x02]      ;; 1 cycle
        MOVW      [HL+0x02], AX      ;; 1 cycle
        MOVW      AX, [DE+0x04]      ;; 1 cycle
        MOVW      [HL+0x04], AX      ;; 1 cycle
        MOVW      AX, [DE+0x06]      ;; 1 cycle
        MOVW      [HL+0x06], AX      ;; 1 cycle
//  486         HWMultiplierAccSigned(cal_YPh.l_shift.vol.sample90,cal_YPh.curr_sample,cal_YPh.l_shift.reactive.acc_cnt_temp);
        MOV       0x29A, #0xC0       ;; 1 cycle
        MOVW      HL, #LWRD(_mac_union_4int)  ;; 1 cycle
        MOVW      DE, #LWRD(_cal_YPh+46)  ;; 1 cycle
        MOVW      AX, [DE]           ;; 1 cycle
        MOVW      [HL], AX           ;; 1 cycle
        MOVW      AX, [DE+0x02]      ;; 1 cycle
        MOVW      [HL+0x02], AX      ;; 1 cycle
        MOVW      AX, [DE+0x04]      ;; 1 cycle
        MOVW      [HL+0x04], AX      ;; 1 cycle
        MOVW      AX, [DE+0x06]      ;; 1 cycle
        MOVW      [HL+0x06], AX      ;; 1 cycle
        MOVW      AX, N:_mac_union_4int  ;; 1 cycle
        MOVW      0x290, AX          ;; 1 cycle
        MOVW      AX, N:_mac_union_4int+2  ;; 1 cycle
        MOVW      0x292, AX          ;; 1 cycle
        MOVW      AX, N:_mac_union_4int+4  ;; 1 cycle
        MOVW      0x294, AX          ;; 1 cycle
        MOVW      AX, N:_mac_union_4int+6  ;; 1 cycle
        MOVW      0x296, AX          ;; 1 cycle
        MOVW      AX, N:_cal_YPh+12  ;; 1 cycle
        MOVW      BC, AX             ;; 1 cycle
        SARW      AX, 0xF            ;; 1 cycle
        XCHW      AX, BC             ;; 1 cycle
        MOVW      N:_mac_union_2int, AX  ;; 1 cycle
        XCHW      AX, BC             ;; 1 cycle
        MOVW      N:_mac_union_2int+2, AX  ;; 1 cycle
        XCHW      AX, BC             ;; 1 cycle
        MOVW      AX, N:_mac_union_2int  ;; 1 cycle
        MOVW      0x28C, AX          ;; 1 cycle
        MOVW      AX, N:_mac_union_2int+2  ;; 1 cycle
        MOVW      0x28E, AX          ;; 1 cycle
        MOVW      AX, N:_cal_YPh+4   ;; 1 cycle
        MOVW      BC, AX             ;; 1 cycle
        SARW      AX, 0xF            ;; 1 cycle
        XCHW      AX, BC             ;; 1 cycle
        MOVW      N:_mac_union_2int, AX  ;; 1 cycle
        XCHW      AX, BC             ;; 1 cycle
        MOVW      N:_mac_union_2int+2, AX  ;; 1 cycle
        XCHW      AX, BC             ;; 1 cycle
        MOVW      AX, N:_mac_union_2int  ;; 1 cycle
        MOVW      0xFFF3C, AX        ;; 1 cycle
        MOVW      AX, N:_mac_union_2int+2  ;; 1 cycle
        MOVW      0xFFF3E, AX        ;; 1 cycle
        NOP                          ;; 1 cycle
        NOP                          ;; 1 cycle
        MOVW      AX, 0x290          ;; 1 cycle
        MOVW      N:_mac_union_4int, AX  ;; 1 cycle
        MOVW      AX, 0x292          ;; 1 cycle
        MOVW      N:_mac_union_4int+2, AX  ;; 1 cycle
        MOVW      AX, 0x294          ;; 1 cycle
        MOVW      N:_mac_union_4int+4, AX  ;; 1 cycle
        MOVW      AX, 0x296          ;; 1 cycle
        MOVW      N:_mac_union_4int+6, AX  ;; 1 cycle
        MOVW      HL, #LWRD(_cal_YPh+46)  ;; 1 cycle
        MOVW      DE, #LWRD(_mac_union_4int)  ;; 1 cycle
        MOVW      AX, [DE]           ;; 1 cycle
        MOVW      [HL], AX           ;; 1 cycle
        MOVW      AX, [DE+0x02]      ;; 1 cycle
        MOVW      [HL+0x02], AX      ;; 1 cycle
        MOVW      AX, [DE+0x04]      ;; 1 cycle
        MOVW      [HL+0x04], AX      ;; 1 cycle
        MOVW      AX, [DE+0x06]      ;; 1 cycle
        MOVW      [HL+0x06], AX      ;; 1 cycle
//  487         HWMultiplierAccSigned(cal_BPh.l_shift.vol.sample90,cal_BPh.curr_sample,cal_BPh.l_shift.reactive.acc_cnt_temp);
        MOV       0x29A, #0xC0       ;; 1 cycle
        MOVW      HL, #LWRD(_mac_union_4int)  ;; 1 cycle
        MOVW      DE, #LWRD(_cal_BPh+46)  ;; 1 cycle
        MOVW      AX, [DE]           ;; 1 cycle
        MOVW      [HL], AX           ;; 1 cycle
        MOVW      AX, [DE+0x02]      ;; 1 cycle
        MOVW      [HL+0x02], AX      ;; 1 cycle
        MOVW      AX, [DE+0x04]      ;; 1 cycle
        MOVW      [HL+0x04], AX      ;; 1 cycle
        MOVW      AX, [DE+0x06]      ;; 1 cycle
        MOVW      [HL+0x06], AX      ;; 1 cycle
        MOVW      AX, N:_mac_union_4int  ;; 1 cycle
        MOVW      0x290, AX          ;; 1 cycle
        MOVW      AX, N:_mac_union_4int+2  ;; 1 cycle
        MOVW      0x292, AX          ;; 1 cycle
        MOVW      AX, N:_mac_union_4int+4  ;; 1 cycle
        MOVW      0x294, AX          ;; 1 cycle
        MOVW      AX, N:_mac_union_4int+6  ;; 1 cycle
        MOVW      0x296, AX          ;; 1 cycle
        MOVW      AX, N:_cal_BPh+12  ;; 1 cycle
        MOVW      BC, AX             ;; 1 cycle
        SARW      AX, 0xF            ;; 1 cycle
        XCHW      AX, BC             ;; 1 cycle
        MOVW      N:_mac_union_2int, AX  ;; 1 cycle
        XCHW      AX, BC             ;; 1 cycle
        MOVW      N:_mac_union_2int+2, AX  ;; 1 cycle
        XCHW      AX, BC             ;; 1 cycle
        MOVW      AX, N:_mac_union_2int  ;; 1 cycle
        MOVW      0x28C, AX          ;; 1 cycle
        MOVW      AX, N:_mac_union_2int+2  ;; 1 cycle
        MOVW      0x28E, AX          ;; 1 cycle
        MOVW      AX, N:_cal_BPh+4   ;; 1 cycle
        MOVW      BC, AX             ;; 1 cycle
        SARW      AX, 0xF            ;; 1 cycle
        XCHW      AX, BC             ;; 1 cycle
        MOVW      N:_mac_union_2int, AX  ;; 1 cycle
        XCHW      AX, BC             ;; 1 cycle
        MOVW      N:_mac_union_2int+2, AX  ;; 1 cycle
        XCHW      AX, BC             ;; 1 cycle
        MOVW      AX, N:_mac_union_2int  ;; 1 cycle
        MOVW      0xFFF3C, AX        ;; 1 cycle
        MOVW      AX, N:_mac_union_2int+2  ;; 1 cycle
        MOVW      0xFFF3E, AX        ;; 1 cycle
        NOP                          ;; 1 cycle
        NOP                          ;; 1 cycle
        MOVW      AX, 0x290          ;; 1 cycle
        MOVW      N:_mac_union_4int, AX  ;; 1 cycle
        MOVW      AX, 0x292          ;; 1 cycle
        MOVW      N:_mac_union_4int+2, AX  ;; 1 cycle
        MOVW      AX, 0x294          ;; 1 cycle
        MOVW      N:_mac_union_4int+4, AX  ;; 1 cycle
        MOVW      AX, 0x296          ;; 1 cycle
        MOVW      N:_mac_union_4int+6, AX  ;; 1 cycle
        MOVW      HL, #LWRD(_cal_BPh+46)  ;; 1 cycle
        MOVW      DE, #LWRD(_mac_union_4int)  ;; 1 cycle
        MOVW      AX, [DE]           ;; 1 cycle
        MOVW      [HL], AX           ;; 1 cycle
        MOVW      AX, [DE+0x02]      ;; 1 cycle
        MOVW      [HL+0x02], AX      ;; 1 cycle
        MOVW      AX, [DE+0x04]      ;; 1 cycle
        MOVW      [HL+0x04], AX      ;; 1 cycle
        MOVW      AX, [DE+0x06]      ;; 1 cycle
        MOVW      [HL+0x06], AX      ;; 1 cycle
//  488         HWMultiplierAccSigned(cal_RPh.r_shift.vol.sample90,cal_RPh.curr_sample,cal_RPh.r_shift.reactive.acc_cnt_temp);
        MOV       0x29A, #0xC0       ;; 1 cycle
        MOVW      HL, #LWRD(_mac_union_4int)  ;; 1 cycle
        MOVW      DE, #LWRD(_cal_RPh+90)  ;; 1 cycle
        MOVW      AX, [DE]           ;; 1 cycle
        MOVW      [HL], AX           ;; 1 cycle
        MOVW      AX, [DE+0x02]      ;; 1 cycle
        MOVW      [HL+0x02], AX      ;; 1 cycle
        MOVW      AX, [DE+0x04]      ;; 1 cycle
        MOVW      [HL+0x04], AX      ;; 1 cycle
        MOVW      AX, [DE+0x06]      ;; 1 cycle
        MOVW      [HL+0x06], AX      ;; 1 cycle
        MOVW      AX, N:_mac_union_4int  ;; 1 cycle
        MOVW      0x290, AX          ;; 1 cycle
        MOVW      AX, N:_mac_union_4int+2  ;; 1 cycle
        MOVW      0x292, AX          ;; 1 cycle
        MOVW      AX, N:_mac_union_4int+4  ;; 1 cycle
        MOVW      0x294, AX          ;; 1 cycle
        MOVW      AX, N:_mac_union_4int+6  ;; 1 cycle
        MOVW      0x296, AX          ;; 1 cycle
        MOVW      AX, N:_cal_RPh+56  ;; 1 cycle
        MOVW      BC, AX             ;; 1 cycle
        SARW      AX, 0xF            ;; 1 cycle
        XCHW      AX, BC             ;; 1 cycle
        MOVW      N:_mac_union_2int, AX  ;; 1 cycle
        XCHW      AX, BC             ;; 1 cycle
        MOVW      N:_mac_union_2int+2, AX  ;; 1 cycle
        XCHW      AX, BC             ;; 1 cycle
        MOVW      AX, N:_mac_union_2int  ;; 1 cycle
        MOVW      0x28C, AX          ;; 1 cycle
        MOVW      AX, N:_mac_union_2int+2  ;; 1 cycle
        MOVW      0x28E, AX          ;; 1 cycle
        MOVW      AX, N:_cal_RPh+4   ;; 1 cycle
        MOVW      BC, AX             ;; 1 cycle
        SARW      AX, 0xF            ;; 1 cycle
        XCHW      AX, BC             ;; 1 cycle
        MOVW      N:_mac_union_2int, AX  ;; 1 cycle
        XCHW      AX, BC             ;; 1 cycle
        MOVW      N:_mac_union_2int+2, AX  ;; 1 cycle
        XCHW      AX, BC             ;; 1 cycle
        MOVW      AX, N:_mac_union_2int  ;; 1 cycle
        MOVW      0xFFF3C, AX        ;; 1 cycle
        MOVW      AX, N:_mac_union_2int+2  ;; 1 cycle
        MOVW      0xFFF3E, AX        ;; 1 cycle
        NOP                          ;; 1 cycle
        NOP                          ;; 1 cycle
        MOVW      AX, 0x290          ;; 1 cycle
        MOVW      N:_mac_union_4int, AX  ;; 1 cycle
        MOVW      AX, 0x292          ;; 1 cycle
        MOVW      N:_mac_union_4int+2, AX  ;; 1 cycle
        MOVW      AX, 0x294          ;; 1 cycle
        MOVW      N:_mac_union_4int+4, AX  ;; 1 cycle
        MOVW      AX, 0x296          ;; 1 cycle
        MOVW      N:_mac_union_4int+6, AX  ;; 1 cycle
        MOVW      HL, #LWRD(_cal_RPh+90)  ;; 1 cycle
        MOVW      DE, #LWRD(_mac_union_4int)  ;; 1 cycle
        MOVW      AX, [DE]           ;; 1 cycle
        MOVW      [HL], AX           ;; 1 cycle
        MOVW      AX, [DE+0x02]      ;; 1 cycle
        MOVW      [HL+0x02], AX      ;; 1 cycle
        MOVW      AX, [DE+0x04]      ;; 1 cycle
        MOVW      [HL+0x04], AX      ;; 1 cycle
        MOVW      AX, [DE+0x06]      ;; 1 cycle
        MOVW      [HL+0x06], AX      ;; 1 cycle
//  489         HWMultiplierAccSigned(cal_YPh.r_shift.vol.sample90,cal_YPh.curr_sample,cal_YPh.r_shift.reactive.acc_cnt_temp);
        MOV       0x29A, #0xC0       ;; 1 cycle
        MOVW      HL, #LWRD(_mac_union_4int)  ;; 1 cycle
        MOVW      DE, #LWRD(_cal_YPh+90)  ;; 1 cycle
        MOVW      AX, [DE]           ;; 1 cycle
        MOVW      [HL], AX           ;; 1 cycle
        MOVW      AX, [DE+0x02]      ;; 1 cycle
        MOVW      [HL+0x02], AX      ;; 1 cycle
        MOVW      AX, [DE+0x04]      ;; 1 cycle
        MOVW      [HL+0x04], AX      ;; 1 cycle
        MOVW      AX, [DE+0x06]      ;; 1 cycle
        MOVW      [HL+0x06], AX      ;; 1 cycle
        MOVW      AX, N:_mac_union_4int  ;; 1 cycle
        MOVW      0x290, AX          ;; 1 cycle
        MOVW      AX, N:_mac_union_4int+2  ;; 1 cycle
        MOVW      0x292, AX          ;; 1 cycle
        MOVW      AX, N:_mac_union_4int+4  ;; 1 cycle
        MOVW      0x294, AX          ;; 1 cycle
        MOVW      AX, N:_mac_union_4int+6  ;; 1 cycle
        MOVW      0x296, AX          ;; 1 cycle
        MOVW      AX, N:_cal_YPh+56  ;; 1 cycle
        MOVW      BC, AX             ;; 1 cycle
        SARW      AX, 0xF            ;; 1 cycle
        XCHW      AX, BC             ;; 1 cycle
        MOVW      N:_mac_union_2int, AX  ;; 1 cycle
        XCHW      AX, BC             ;; 1 cycle
        MOVW      N:_mac_union_2int+2, AX  ;; 1 cycle
        XCHW      AX, BC             ;; 1 cycle
        MOVW      AX, N:_mac_union_2int  ;; 1 cycle
        MOVW      0x28C, AX          ;; 1 cycle
        MOVW      AX, N:_mac_union_2int+2  ;; 1 cycle
        MOVW      0x28E, AX          ;; 1 cycle
        MOVW      AX, N:_cal_YPh+4   ;; 1 cycle
        MOVW      BC, AX             ;; 1 cycle
        SARW      AX, 0xF            ;; 1 cycle
        XCHW      AX, BC             ;; 1 cycle
        MOVW      N:_mac_union_2int, AX  ;; 1 cycle
        XCHW      AX, BC             ;; 1 cycle
        MOVW      N:_mac_union_2int+2, AX  ;; 1 cycle
        XCHW      AX, BC             ;; 1 cycle
        MOVW      AX, N:_mac_union_2int  ;; 1 cycle
        MOVW      0xFFF3C, AX        ;; 1 cycle
        MOVW      AX, N:_mac_union_2int+2  ;; 1 cycle
        MOVW      0xFFF3E, AX        ;; 1 cycle
        NOP                          ;; 1 cycle
        NOP                          ;; 1 cycle
        MOVW      AX, 0x290          ;; 1 cycle
        MOVW      N:_mac_union_4int, AX  ;; 1 cycle
        MOVW      AX, 0x292          ;; 1 cycle
        MOVW      N:_mac_union_4int+2, AX  ;; 1 cycle
        MOVW      AX, 0x294          ;; 1 cycle
        MOVW      N:_mac_union_4int+4, AX  ;; 1 cycle
        MOVW      AX, 0x296          ;; 1 cycle
        MOVW      N:_mac_union_4int+6, AX  ;; 1 cycle
        MOVW      HL, #LWRD(_cal_YPh+90)  ;; 1 cycle
        MOVW      DE, #LWRD(_mac_union_4int)  ;; 1 cycle
        MOVW      AX, [DE]           ;; 1 cycle
        MOVW      [HL], AX           ;; 1 cycle
        MOVW      AX, [DE+0x02]      ;; 1 cycle
        MOVW      [HL+0x02], AX      ;; 1 cycle
        MOVW      AX, [DE+0x04]      ;; 1 cycle
        MOVW      [HL+0x04], AX      ;; 1 cycle
        MOVW      AX, [DE+0x06]      ;; 1 cycle
        MOVW      [HL+0x06], AX      ;; 1 cycle
//  490         HWMultiplierAccSigned(cal_BPh.r_shift.vol.sample90,cal_BPh.curr_sample,cal_BPh.r_shift.reactive.acc_cnt_temp);
        MOV       0x29A, #0xC0       ;; 1 cycle
        MOVW      HL, #LWRD(_mac_union_4int)  ;; 1 cycle
        MOVW      DE, #LWRD(_cal_BPh+90)  ;; 1 cycle
        MOVW      AX, [DE]           ;; 1 cycle
        MOVW      [HL], AX           ;; 1 cycle
        MOVW      AX, [DE+0x02]      ;; 1 cycle
        MOVW      [HL+0x02], AX      ;; 1 cycle
        MOVW      AX, [DE+0x04]      ;; 1 cycle
        MOVW      [HL+0x04], AX      ;; 1 cycle
        MOVW      AX, [DE+0x06]      ;; 1 cycle
        MOVW      [HL+0x06], AX      ;; 1 cycle
        MOVW      AX, N:_mac_union_4int  ;; 1 cycle
        MOVW      0x290, AX          ;; 1 cycle
        MOVW      AX, N:_mac_union_4int+2  ;; 1 cycle
        MOVW      0x292, AX          ;; 1 cycle
        MOVW      AX, N:_mac_union_4int+4  ;; 1 cycle
        MOVW      0x294, AX          ;; 1 cycle
        MOVW      AX, N:_mac_union_4int+6  ;; 1 cycle
        MOVW      0x296, AX          ;; 1 cycle
        MOVW      AX, N:_cal_BPh+56  ;; 1 cycle
        MOVW      BC, AX             ;; 1 cycle
        SARW      AX, 0xF            ;; 1 cycle
        XCHW      AX, BC             ;; 1 cycle
        MOVW      N:_mac_union_2int, AX  ;; 1 cycle
        XCHW      AX, BC             ;; 1 cycle
        MOVW      N:_mac_union_2int+2, AX  ;; 1 cycle
        XCHW      AX, BC             ;; 1 cycle
        MOVW      AX, N:_mac_union_2int  ;; 1 cycle
        MOVW      0x28C, AX          ;; 1 cycle
        MOVW      AX, N:_mac_union_2int+2  ;; 1 cycle
        MOVW      0x28E, AX          ;; 1 cycle
        MOVW      AX, N:_cal_BPh+4   ;; 1 cycle
        MOVW      BC, AX             ;; 1 cycle
        SARW      AX, 0xF            ;; 1 cycle
        XCHW      AX, BC             ;; 1 cycle
        MOVW      N:_mac_union_2int, AX  ;; 1 cycle
        XCHW      AX, BC             ;; 1 cycle
        MOVW      N:_mac_union_2int+2, AX  ;; 1 cycle
        XCHW      AX, BC             ;; 1 cycle
        MOVW      AX, N:_mac_union_2int  ;; 1 cycle
        MOVW      0xFFF3C, AX        ;; 1 cycle
        MOVW      AX, N:_mac_union_2int+2  ;; 1 cycle
        MOVW      0xFFF3E, AX        ;; 1 cycle
        NOP                          ;; 1 cycle
        NOP                          ;; 1 cycle
        MOVW      AX, 0x290          ;; 1 cycle
        MOVW      N:_mac_union_4int, AX  ;; 1 cycle
        MOVW      AX, 0x292          ;; 1 cycle
        MOVW      N:_mac_union_4int+2, AX  ;; 1 cycle
        MOVW      AX, 0x294          ;; 1 cycle
        MOVW      N:_mac_union_4int+4, AX  ;; 1 cycle
        MOVW      AX, 0x296          ;; 1 cycle
        MOVW      N:_mac_union_4int+6, AX  ;; 1 cycle
        MOVW      HL, #LWRD(_cal_BPh+90)  ;; 1 cycle
        MOVW      DE, #LWRD(_mac_union_4int)  ;; 1 cycle
        MOVW      AX, [DE]           ;; 1 cycle
        MOVW      [HL], AX           ;; 1 cycle
        MOVW      AX, [DE+0x02]      ;; 1 cycle
        MOVW      [HL+0x02], AX      ;; 1 cycle
        MOVW      AX, [DE+0x04]      ;; 1 cycle
        MOVW      [HL+0x04], AX      ;; 1 cycle
        MOVW      AX, [DE+0x06]      ;; 1 cycle
        MOVW      [HL+0x06], AX      ;; 1 cycle
        ; ------------------------------------- Block: 756 cycles
//  491     }
//  492     
//  493     // pending verify the following code for various combination of fwd and reverse of CT
//  494     if(flag_zc_r_detect == 1)
??power_filter_23:
        MOVW      HL, #LWRD(_flag_zc)  ;; 1 cycle
        MOV1      CY, [HL].0         ;; 1 cycle
        BNC       ??power_filter_24  ;; 4 cycles
        ; ------------------------------------- Block: 6 cycles
//  495     {
//  496         flag_metrology_angle_start_r_y = 1;
        SET1      N:_flag_metrology.4  ;; 2 cycles
//  497         flag_metrology_angle_start_b_r = 0;
        CLR1      N:_flag_metrology.6  ;; 2 cycles
        ; ------------------------------------- Block: 4 cycles
//  498     }
//  499     if(flag_zc_y_detect == 1)
??power_filter_24:
        MOVW      HL, #LWRD(_flag_zc)  ;; 1 cycle
        MOV1      CY, [HL].1         ;; 1 cycle
        BNC       ??power_filter_25  ;; 4 cycles
        ; ------------------------------------- Block: 6 cycles
//  500     {
//  501         flag_metrology_angle_start_r_y = 0;
        CLR1      N:_flag_metrology.4  ;; 2 cycles
//  502         flag_metrology_angle_start_y_b = 1;
        SET1      N:_flag_metrology.5  ;; 2 cycles
        ; ------------------------------------- Block: 4 cycles
//  503     }
//  504     if(flag_zc_b_detect == 1)
??power_filter_25:
        MOVW      HL, #LWRD(_flag_zc)  ;; 1 cycle
        MOV1      CY, [HL].2         ;; 1 cycle
        BNC       ??power_filter_26  ;; 4 cycles
        ; ------------------------------------- Block: 6 cycles
//  505     {
//  506         flag_metrology_angle_start_y_b = 0;
        CLR1      N:_flag_metrology.5  ;; 2 cycles
//  507         flag_metrology_angle_start_b_r = 1;
        SET1      N:_flag_metrology.6  ;; 2 cycles
        ; ------------------------------------- Block: 4 cycles
//  508     }
//  509     
//  510     
//  511     /* Angle RY */
//  512     if(flag_phase_present_r == 1 && flag_phase_present_y == 1)
??power_filter_26:
        MOV       A, N:_flag_metro2  ;; 1 cycle
        AND       A, #0x3            ;; 1 cycle
        CMP       A, #0x3            ;; 1 cycle
        BNZ       ??power_filter_27  ;; 4 cycles
        ; ------------------------------------- Block: 7 cycles
//  513     {
//  514         if(flag_metrology_angle_start_r_y == 1)
        MOVW      HL, #LWRD(_flag_metrology)  ;; 1 cycle
        MOV1      CY, [HL].4         ;; 1 cycle
        BNC       ??power_filter_28  ;; 4 cycles
        ; ------------------------------------- Block: 6 cycles
//  515         {
//  516             ph_ph.Ph_RY.angle.cntr_temp++;
        INCW      N:_ph_ph+6         ;; 2 cycles
        BR        S:??power_filter_28  ;; 3 cycles
        ; ------------------------------------- Block: 5 cycles
//  517         }
//  518     }
//  519     else
//  520     {
//  521         ph_ph.Ph_RY.angle.cntr_temp = 0;
??power_filter_27:
        MOVW      AX, #0x0           ;; 1 cycle
        MOVW      N:_ph_ph+6, AX     ;; 1 cycle
        ; ------------------------------------- Block: 2 cycles
//  522     }
//  523     
//  524     /* Angle YB */
//  525     if(flag_phase_present_y == 1 && flag_phase_present_b == 1)
??power_filter_28:
        MOV       A, N:_flag_metro2  ;; 1 cycle
        AND       A, #0x6            ;; 1 cycle
        CMP       A, #0x6            ;; 1 cycle
        BNZ       ??power_filter_29  ;; 4 cycles
        ; ------------------------------------- Block: 7 cycles
//  526     {
//  527         if(flag_metrology_angle_start_y_b == 1)
        MOVW      HL, #LWRD(_flag_metrology)  ;; 1 cycle
        MOV1      CY, [HL].5         ;; 1 cycle
        BNC       ??power_filter_30  ;; 4 cycles
        ; ------------------------------------- Block: 6 cycles
//  528         {
//  529             ph_ph.Ph_YB.angle.cntr_temp++;
        INCW      N:_ph_ph+14        ;; 2 cycles
        BR        S:??power_filter_30  ;; 3 cycles
        ; ------------------------------------- Block: 5 cycles
//  530         }
//  531     }
//  532     else
//  533     {
//  534         ph_ph.Ph_YB.angle.cntr_temp = 0;
??power_filter_29:
        MOVW      AX, #0x0           ;; 1 cycle
        MOVW      N:_ph_ph+14, AX    ;; 1 cycle
        ; ------------------------------------- Block: 2 cycles
//  535     }
//  536     
//  537     /* Angle RB */
//  538     if(flag_phase_present_r == 1 && flag_phase_present_b == 1)
??power_filter_30:
        MOV       A, N:_flag_metro2  ;; 1 cycle
        AND       A, #0x5            ;; 1 cycle
        CMP       A, #0x5            ;; 1 cycle
        BNZ       ??power_filter_31  ;; 4 cycles
        ; ------------------------------------- Block: 7 cycles
//  539     {
//  540         if(flag_metrology_angle_start_b_r == 1)
        MOVW      HL, #LWRD(_flag_metrology)  ;; 1 cycle
        MOV1      CY, [HL].6         ;; 1 cycle
        BNC       ??power_filter_32  ;; 4 cycles
        ; ------------------------------------- Block: 6 cycles
//  541         {
//  542             ph_ph.Ph_BR.angle.cntr_temp++;
        INCW      N:_ph_ph+22        ;; 2 cycles
        BR        S:??power_filter_32  ;; 3 cycles
        ; ------------------------------------- Block: 5 cycles
//  543         }
//  544     }
//  545     else
//  546     {
//  547         ph_ph.Ph_BR.angle.cntr_temp = 0;
??power_filter_31:
        MOVW      AX, #0x0           ;; 1 cycle
        MOVW      N:_ph_ph+22, AX    ;; 1 cycle
        ; ------------------------------------- Block: 2 cycles
//  548     }
//  549     
//  550     two_ms_loop_cntr++;
??power_filter_32:
        INC       N:`metrology_function::two_ms_loop_cntr`  ;; 2 cycles
//  551     if(two_ms_loop_cntr >= 8)                   /* 2.048 ms loop */
        MOV       A, N:`metrology_function::two_ms_loop_cntr`  ;; 1 cycle
        CMP       A, #0x8            ;; 1 cycle
        SKNC                         ;; 4 cycles
        BR        N:??power_filter_33  ;; 4 cycles
        ; ------------------------------------- Block: 8 cycles
//  552     {
//  553         two_ms_loop_cntr = 0;
        MOV       N:`metrology_function::two_ms_loop_cntr`, #0x0  ;; 1 cycle
//  554         
//  555         /* Pulse out calculation */
//  556         dispense_ecal++;
        INC       N:`metrology_function::dispense_ecal`  ;; 2 cycles
//  557         if(dispense_ecal >= (LED_PULSE_TIME))
        MOV       A, N:`metrology_function::dispense_ecal`  ;; 1 cycle
        CMP       A, #0xE            ;; 1 cycle
        BC        ??power_filter_34  ;; 4 cycles
        ; ------------------------------------- Block: 9 cycles
//  558         {
//  559             LED_ECAL_LOW;
        CLR1      S:0xFFF04.3        ;; 2 cycles
//  560             dispense_ecal = 0;
        MOV       N:`metrology_function::dispense_ecal`, #0x0  ;; 1 cycle
        ; ------------------------------------- Block: 3 cycles
//  561         }
//  562         dispense_rcal++;
??power_filter_34:
        INC       N:`metrology_function::dispense_rcal`  ;; 2 cycles
//  563         if(dispense_rcal >= (LED_PULSE_TIME))
        MOV       A, N:`metrology_function::dispense_rcal`  ;; 1 cycle
        CMP       A, #0xE            ;; 1 cycle
        BC        ??power_filter_35  ;; 4 cycles
        ; ------------------------------------- Block: 8 cycles
//  564         {
//  565             LED_RCAL_LOW;
        CLR1      S:0xFFF05.0        ;; 2 cycles
//  566             dispense_rcal = 0;
        MOV       N:`metrology_function::dispense_rcal`, #0x0  ;; 1 cycle
        ; ------------------------------------- Block: 3 cycles
//  567         }
//  568         
//  569         /****************************************************************************************
//  570         ****************************  Active Energy Calculation  ********************************
//  571         ****************************************************************************************/
//  572         r_phase.active.acc_delta_cnts += r_phase.active.delta_cnts;
??power_filter_35:
        MOVW      DE, #LWRD(_r_phase+96)  ;; 1 cycle
        MOVW      BC, #LWRD(_r_phase+88)  ;; 1 cycle
        MOVW      AX, #LWRD(_r_phase+88)  ;; 1 cycle
          CFI FunCall __Add64
        CALL      __Add64            ;; 3 cycles
//  573         if(r_phase.active.acc_delta_cnts >= ACT_THRESHOLD)
        MOVW      BC, #LWRD(_ACT_THRESHOLD)  ;; 1 cycle
        MOVW      AX, #LWRD(_r_phase+88)  ;; 1 cycle
          CFI FunCall __CmpLtu64
        CALL      __CmpLtu64         ;; 3 cycles
        CMP0      A                  ;; 1 cycle
        BNZ       ??power_filter_36  ;; 4 cycles
        ; ------------------------------------- Block: 16 cycles
//  574         {
//  575             r_phase.active.acc_delta_cnts -= ACT_THRESHOLD;
        MOVW      DE, #LWRD(_ACT_THRESHOLD)  ;; 1 cycle
        MOVW      BC, #LWRD(_r_phase+88)  ;; 1 cycle
        MOVW      AX, #LWRD(_r_phase+88)  ;; 1 cycle
          CFI FunCall __Sub64
        CALL      __Sub64            ;; 3 cycles
//  576             if(METERING_MODE == NET)
        CMP       N:_METERING_MODE, #0x1  ;; 1 cycle
        BNZ       ??power_filter_37  ;; 4 cycles
        ; ------------------------------------- Block: 11 cycles
//  577             {
//  578                 active_calculation_net(PHASE_R,quadrant.Rph); 
        MOV       X, N:_quadrant     ;; 1 cycle
        MOV       A, #0x0            ;; 1 cycle
          CFI FunCall _active_calculation_net
        CALL      _active_calculation_net  ;; 3 cycles
        BR        S:??power_filter_36  ;; 3 cycles
        ; ------------------------------------- Block: 8 cycles
//  579             }
//  580             else 
//  581             {
//  582                 active_calculation_fwd(PHASE_R,quadrant.Rph);
??power_filter_37:
        MOV       X, N:_quadrant     ;; 1 cycle
        MOV       A, #0x0            ;; 1 cycle
          CFI FunCall _active_calculation_fwd
        CALL      _active_calculation_fwd  ;; 3 cycles
        ; ------------------------------------- Block: 5 cycles
//  583             }
//  584         }
//  585         
//  586         y_phase.active.acc_delta_cnts += y_phase.active.delta_cnts;
??power_filter_36:
        MOVW      DE, #LWRD(_y_phase+96)  ;; 1 cycle
        MOVW      BC, #LWRD(_y_phase+88)  ;; 1 cycle
        MOVW      AX, #LWRD(_y_phase+88)  ;; 1 cycle
          CFI FunCall __Add64
        CALL      __Add64            ;; 3 cycles
//  587         if(y_phase.active.acc_delta_cnts >= ACT_THRESHOLD)
        MOVW      BC, #LWRD(_ACT_THRESHOLD)  ;; 1 cycle
        MOVW      AX, #LWRD(_y_phase+88)  ;; 1 cycle
          CFI FunCall __CmpLtu64
        CALL      __CmpLtu64         ;; 3 cycles
        CMP0      A                  ;; 1 cycle
        BNZ       ??power_filter_38  ;; 4 cycles
        ; ------------------------------------- Block: 16 cycles
//  588         {
//  589             y_phase.active.acc_delta_cnts -= ACT_THRESHOLD;
        MOVW      DE, #LWRD(_ACT_THRESHOLD)  ;; 1 cycle
        MOVW      BC, #LWRD(_y_phase+88)  ;; 1 cycle
        MOVW      AX, #LWRD(_y_phase+88)  ;; 1 cycle
          CFI FunCall __Sub64
        CALL      __Sub64            ;; 3 cycles
//  590             if(METERING_MODE == NET)
        CMP       N:_METERING_MODE, #0x1  ;; 1 cycle
        BNZ       ??power_filter_39  ;; 4 cycles
        ; ------------------------------------- Block: 11 cycles
//  591             {
//  592                 active_calculation_net(PHASE_Y,quadrant.Yph); 
        MOV       X, N:_quadrant+1   ;; 1 cycle
        MOV       A, #0x1            ;; 1 cycle
          CFI FunCall _active_calculation_net
        CALL      _active_calculation_net  ;; 3 cycles
        BR        S:??power_filter_38  ;; 3 cycles
        ; ------------------------------------- Block: 8 cycles
//  593             }
//  594             else 
//  595             {
//  596                 active_calculation_fwd(PHASE_Y,quadrant.Yph);
??power_filter_39:
        MOV       X, N:_quadrant+1   ;; 1 cycle
        MOV       A, #0x1            ;; 1 cycle
          CFI FunCall _active_calculation_fwd
        CALL      _active_calculation_fwd  ;; 3 cycles
        ; ------------------------------------- Block: 5 cycles
//  597             }
//  598         }
//  599         
//  600         b_phase.active.acc_delta_cnts += b_phase.active.delta_cnts;
??power_filter_38:
        MOVW      DE, #LWRD(_b_phase+96)  ;; 1 cycle
        MOVW      BC, #LWRD(_b_phase+88)  ;; 1 cycle
        MOVW      AX, #LWRD(_b_phase+88)  ;; 1 cycle
          CFI FunCall __Add64
        CALL      __Add64            ;; 3 cycles
//  601         if(b_phase.active.acc_delta_cnts >= ACT_THRESHOLD)
        MOVW      BC, #LWRD(_ACT_THRESHOLD)  ;; 1 cycle
        MOVW      AX, #LWRD(_b_phase+88)  ;; 1 cycle
          CFI FunCall __CmpLtu64
        CALL      __CmpLtu64         ;; 3 cycles
        CMP0      A                  ;; 1 cycle
        BNZ       ??power_filter_40  ;; 4 cycles
        ; ------------------------------------- Block: 16 cycles
//  602         {
//  603             b_phase.active.acc_delta_cnts -= ACT_THRESHOLD;
        MOVW      DE, #LWRD(_ACT_THRESHOLD)  ;; 1 cycle
        MOVW      BC, #LWRD(_b_phase+88)  ;; 1 cycle
        MOVW      AX, #LWRD(_b_phase+88)  ;; 1 cycle
          CFI FunCall __Sub64
        CALL      __Sub64            ;; 3 cycles
//  604             if(METERING_MODE == NET)
        CMP       N:_METERING_MODE, #0x1  ;; 1 cycle
        BNZ       ??power_filter_41  ;; 4 cycles
        ; ------------------------------------- Block: 11 cycles
//  605             {
//  606                 active_calculation_net(PHASE_B,quadrant.Bph); 
        MOV       X, N:_quadrant+2   ;; 1 cycle
        MOV       A, #0x2            ;; 1 cycle
          CFI FunCall _active_calculation_net
        CALL      _active_calculation_net  ;; 3 cycles
        BR        S:??power_filter_40  ;; 3 cycles
        ; ------------------------------------- Block: 8 cycles
//  607             }
//  608             else 
//  609             {
//  610                 active_calculation_fwd(PHASE_B,quadrant.Bph);
??power_filter_41:
        MOV       X, N:_quadrant+2   ;; 1 cycle
        MOV       A, #0x2            ;; 1 cycle
          CFI FunCall _active_calculation_fwd
        CALL      _active_calculation_fwd  ;; 3 cycles
        ; ------------------------------------- Block: 5 cycles
//  611             }
//  612         }
//  613         
//  614         all_phase.active.acc_delta_cnts += all_phase.active.delta_cnts;
??power_filter_40:
        MOVW      DE, #LWRD(_all_phase+24)  ;; 1 cycle
        MOVW      BC, #LWRD(_all_phase+16)  ;; 1 cycle
        MOVW      AX, #LWRD(_all_phase+16)  ;; 1 cycle
          CFI FunCall __Add64
        CALL      __Add64            ;; 3 cycles
//  615         if(all_phase.active.acc_delta_cnts >= ACT_THRESHOLD)
        MOVW      BC, #LWRD(_ACT_THRESHOLD)  ;; 1 cycle
        MOVW      AX, #LWRD(_all_phase+16)  ;; 1 cycle
          CFI FunCall __CmpLtu64
        CALL      __CmpLtu64         ;; 3 cycles
        CMP0      A                  ;; 1 cycle
        BNZ       ??power_filter_42  ;; 4 cycles
        ; ------------------------------------- Block: 16 cycles
//  616         {
//  617             all_phase.active.acc_delta_cnts -= ACT_THRESHOLD;
        MOVW      DE, #LWRD(_ACT_THRESHOLD)  ;; 1 cycle
        MOVW      BC, #LWRD(_all_phase+16)  ;; 1 cycle
        MOVW      AX, #LWRD(_all_phase+16)  ;; 1 cycle
          CFI FunCall __Sub64
        CALL      __Sub64            ;; 3 cycles
//  618             LED_ECAL_HIGH;
        SET1      S:0xFFF04.3        ;; 2 cycles
//  619             dispense_ecal=0;
        MOV       N:`metrology_function::dispense_ecal`, #0x0  ;; 1 cycle
//  620             if(METERING_MODE == FWD)
        CMP0      N:_METERING_MODE   ;; 1 cycle
        BNZ       ??power_filter_42  ;; 4 cycles
        ; ------------------------------------- Block: 14 cycles
//  621             {
//  622                 active_calculation_fwd(PHASE_ALL,quadrant.Allph);
        MOV       X, N:_quadrant+3   ;; 1 cycle
        MOV       A, #0x3            ;; 1 cycle
          CFI FunCall _active_calculation_fwd
        CALL      _active_calculation_fwd  ;; 3 cycles
        ; ------------------------------------- Block: 5 cycles
//  623             }
//  624         }
//  625         
//  626         all_phase.fundamental.active.acc_delta_cnts += all_phase.fundamental.active.delta_cnts;
??power_filter_42:
        MOVW      DE, #LWRD(_all_phase+128)  ;; 1 cycle
        MOVW      BC, #LWRD(_all_phase+120)  ;; 1 cycle
        MOVW      AX, #LWRD(_all_phase+120)  ;; 1 cycle
          CFI FunCall __Add64
        CALL      __Add64            ;; 3 cycles
//  627         if(all_phase.fundamental.active.acc_delta_cnts >= ACT_THRESHOLD)
        MOVW      BC, #LWRD(_ACT_THRESHOLD)  ;; 1 cycle
        MOVW      AX, #LWRD(_all_phase+120)  ;; 1 cycle
          CFI FunCall __CmpLtu64
        CALL      __CmpLtu64         ;; 3 cycles
        CMP0      A                  ;; 1 cycle
        BNZ       ??power_filter_43  ;; 4 cycles
        ; ------------------------------------- Block: 16 cycles
//  628         {
//  629             all_phase.fundamental.active.acc_delta_cnts -= ACT_THRESHOLD;
        MOVW      DE, #LWRD(_ACT_THRESHOLD)  ;; 1 cycle
        MOVW      BC, #LWRD(_all_phase+120)  ;; 1 cycle
        MOVW      AX, #LWRD(_all_phase+120)  ;; 1 cycle
          CFI FunCall __Sub64
        CALL      __Sub64            ;; 3 cycles
//  630             if(METERING_MODE == FWD)
        CMP0      N:_METERING_MODE   ;; 1 cycle
        BNZ       ??power_filter_43  ;; 4 cycles
        ; ------------------------------------- Block: 11 cycles
//  631             {
//  632                 if(thd.Rph.correction != 0 || thd.Yph.correction != 0 || thd.Bph.correction != 0)
        CMP0      N:_thd+16          ;; 1 cycle
        BNZ       ??power_filter_44  ;; 4 cycles
        ; ------------------------------------- Block: 5 cycles
        CMP0      N:_thd+34          ;; 1 cycle
        BNZ       ??power_filter_44  ;; 4 cycles
        ; ------------------------------------- Block: 5 cycles
        CMP0      N:_thd+52          ;; 1 cycle
        BZ        ??power_filter_43  ;; 4 cycles
        ; ------------------------------------- Block: 5 cycles
//  633                 {
//  634                     energy.Allph.fundamental_pulse++;
??power_filter_44:
        INC       N:_energy+44       ;; 2 cycles
//  635                     if(energy.Allph.fundamental_pulse >= PULSE)
        MOV       A, N:_energy+44    ;; 1 cycle
        CMP       A, #0x6            ;; 1 cycle
        BC        ??power_filter_43  ;; 4 cycles
        ; ------------------------------------- Block: 8 cycles
//  636                     {
//  637                         energy.Allph.fundamental_pulse = 0;
        MOV       N:_energy+44, #0x0  ;; 1 cycle
//  638                         energy.Allph.fundamental += QUANTA;
        MOVW      BC, N:_energy+66   ;; 1 cycle
        MOVW      AX, N:_energy+64   ;; 1 cycle
        ADDW      AX, #0x5           ;; 1 cycle
        SKNC
        INCW      BC                 ;; 5 cycles
        XCHW      AX, BC             ;; 1 cycle
        ADDW      AX, #0x0           ;; 1 cycle
        XCHW      AX, BC             ;; 1 cycle
        MOVW      N:_energy+64, AX   ;; 1 cycle
        XCHW      AX, BC             ;; 1 cycle
        MOVW      N:_energy+66, AX   ;; 1 cycle
        XCHW      AX, BC             ;; 1 cycle
        ; ------------------------------------- Block: 16 cycles
//  639                     }
//  640                 }
//  641             }
//  642         }
//  643         
//  644         
//  645         /****************************************************************************************
//  646         ****************************  Reactive Energy Calculation  ******************************
//  647         ****************************************************************************************/
//  648         if(METERING_MODE == NET)
??power_filter_43:
        CMP       N:_METERING_MODE, #0x1  ;; 1 cycle
        SKZ                          ;; 4 cycles
        BR        N:??power_filter_45  ;; 4 cycles
        ; ------------------------------------- Block: 5 cycles
//  649         {
//  650             r_phase.reactive.acc_delta_cnts += r_phase.reactive.delta_cnts;
        MOVW      DE, #LWRD(_r_phase+136)  ;; 1 cycle
        MOVW      BC, #LWRD(_r_phase+128)  ;; 1 cycle
        MOVW      AX, #LWRD(_r_phase+128)  ;; 1 cycle
          CFI FunCall __Add64
        CALL      __Add64            ;; 3 cycles
//  651             if(r_phase.reactive.acc_delta_cnts >= REACT_THRESHOLD)
        MOVW      BC, #LWRD(_REACT_THRESHOLD)  ;; 1 cycle
        MOVW      AX, #LWRD(_r_phase+128)  ;; 1 cycle
          CFI FunCall __CmpLtu64
        CALL      __CmpLtu64         ;; 3 cycles
        CMP0      A                  ;; 1 cycle
        BNZ       ??power_filter_46  ;; 4 cycles
        ; ------------------------------------- Block: 16 cycles
//  652             {
//  653                 r_phase.reactive.acc_delta_cnts -= REACT_THRESHOLD;
        MOVW      DE, #LWRD(_REACT_THRESHOLD)  ;; 1 cycle
        MOVW      BC, #LWRD(_r_phase+128)  ;; 1 cycle
        MOVW      AX, #LWRD(_r_phase+128)  ;; 1 cycle
          CFI FunCall __Sub64
        CALL      __Sub64            ;; 3 cycles
//  654                 reactive_calculation_net(PHASE_R,quadrant.Rph); 
        MOV       X, N:_quadrant     ;; 1 cycle
        MOV       A, #0x0            ;; 1 cycle
          CFI FunCall _reactive_calculation_net
        CALL      _reactive_calculation_net  ;; 3 cycles
        ; ------------------------------------- Block: 11 cycles
//  655             }
//  656             
//  657             y_phase.reactive.acc_delta_cnts += y_phase.reactive.delta_cnts;
??power_filter_46:
        MOVW      DE, #LWRD(_y_phase+136)  ;; 1 cycle
        MOVW      BC, #LWRD(_y_phase+128)  ;; 1 cycle
        MOVW      AX, #LWRD(_y_phase+128)  ;; 1 cycle
          CFI FunCall __Add64
        CALL      __Add64            ;; 3 cycles
//  658             if(y_phase.reactive.acc_delta_cnts >= REACT_THRESHOLD)
        MOVW      BC, #LWRD(_REACT_THRESHOLD)  ;; 1 cycle
        MOVW      AX, #LWRD(_y_phase+128)  ;; 1 cycle
          CFI FunCall __CmpLtu64
        CALL      __CmpLtu64         ;; 3 cycles
        CMP0      A                  ;; 1 cycle
        BNZ       ??power_filter_47  ;; 4 cycles
        ; ------------------------------------- Block: 16 cycles
//  659             {
//  660                 y_phase.reactive.acc_delta_cnts -= REACT_THRESHOLD;
        MOVW      DE, #LWRD(_REACT_THRESHOLD)  ;; 1 cycle
        MOVW      BC, #LWRD(_y_phase+128)  ;; 1 cycle
        MOVW      AX, #LWRD(_y_phase+128)  ;; 1 cycle
          CFI FunCall __Sub64
        CALL      __Sub64            ;; 3 cycles
//  661                 reactive_calculation_net(PHASE_Y,quadrant.Yph); 
        MOV       X, N:_quadrant+1   ;; 1 cycle
        MOV       A, #0x1            ;; 1 cycle
          CFI FunCall _reactive_calculation_net
        CALL      _reactive_calculation_net  ;; 3 cycles
        ; ------------------------------------- Block: 11 cycles
//  662             }
//  663             
//  664             b_phase.reactive.acc_delta_cnts += b_phase.reactive.delta_cnts;
??power_filter_47:
        MOVW      DE, #LWRD(_b_phase+136)  ;; 1 cycle
        MOVW      BC, #LWRD(_b_phase+128)  ;; 1 cycle
        MOVW      AX, #LWRD(_b_phase+128)  ;; 1 cycle
          CFI FunCall __Add64
        CALL      __Add64            ;; 3 cycles
//  665             if(b_phase.reactive.acc_delta_cnts >= REACT_THRESHOLD)
        MOVW      BC, #LWRD(_REACT_THRESHOLD)  ;; 1 cycle
        MOVW      AX, #LWRD(_b_phase+128)  ;; 1 cycle
          CFI FunCall __CmpLtu64
        CALL      __CmpLtu64         ;; 3 cycles
        CMP0      A                  ;; 1 cycle
        BNZ       ??power_filter_45  ;; 4 cycles
        ; ------------------------------------- Block: 16 cycles
//  666             {
//  667                 b_phase.reactive.acc_delta_cnts -= REACT_THRESHOLD;
        MOVW      DE, #LWRD(_REACT_THRESHOLD)  ;; 1 cycle
        MOVW      BC, #LWRD(_b_phase+128)  ;; 1 cycle
        MOVW      AX, #LWRD(_b_phase+128)  ;; 1 cycle
          CFI FunCall __Sub64
        CALL      __Sub64            ;; 3 cycles
//  668                 reactive_calculation_net(PHASE_B,quadrant.Bph); 
        MOV       X, N:_quadrant+2   ;; 1 cycle
        MOV       A, #0x2            ;; 1 cycle
          CFI FunCall _reactive_calculation_net
        CALL      _reactive_calculation_net  ;; 3 cycles
        ; ------------------------------------- Block: 11 cycles
//  669             }
//  670         }
//  671         all_phase.reactive.acc_delta_cnts += all_phase.reactive.delta_cnts_net;
??power_filter_45:
        MOVW      DE, #LWRD(_all_phase+72)  ;; 1 cycle
        MOVW      BC, #LWRD(_all_phase+56)  ;; 1 cycle
        MOVW      AX, #LWRD(_all_phase+56)  ;; 1 cycle
          CFI FunCall __Add64
        CALL      __Add64            ;; 3 cycles
//  672         if(all_phase.reactive.acc_delta_cnts >= REACT_THRESHOLD)
        MOVW      BC, #LWRD(_REACT_THRESHOLD)  ;; 1 cycle
        MOVW      AX, #LWRD(_all_phase+56)  ;; 1 cycle
          CFI FunCall __CmpLtu64
        CALL      __CmpLtu64         ;; 3 cycles
        CMP0      A                  ;; 1 cycle
        BNZ       ??power_filter_48  ;; 4 cycles
        ; ------------------------------------- Block: 16 cycles
//  673         {
//  674             all_phase.reactive.acc_delta_cnts -= REACT_THRESHOLD;
        MOVW      DE, #LWRD(_REACT_THRESHOLD)  ;; 1 cycle
        MOVW      BC, #LWRD(_all_phase+56)  ;; 1 cycle
        MOVW      AX, #LWRD(_all_phase+56)  ;; 1 cycle
          CFI FunCall __Sub64
        CALL      __Sub64            ;; 3 cycles
//  675             if(METERING_MODE == FWD)
        CMP0      N:_METERING_MODE   ;; 1 cycle
        BNZ       ??power_filter_49  ;; 4 cycles
        ; ------------------------------------- Block: 11 cycles
//  676             {
//  677                 reactive_calculation_fwd(PHASE_ALL,quadrant.Allph); 
        MOV       X, N:_quadrant+3   ;; 1 cycle
        MOV       A, #0x3            ;; 1 cycle
          CFI FunCall _reactive_calculation_fwd
        CALL      _reactive_calculation_fwd  ;; 3 cycles
        ; ------------------------------------- Block: 5 cycles
//  678             }
//  679             LED_RCAL_HIGH;
??power_filter_49:
        SET1      S:0xFFF05.0        ;; 2 cycles
//  680             dispense_rcal=0;
        MOV       N:`metrology_function::dispense_rcal`, #0x0  ;; 1 cycle
        ; ------------------------------------- Block: 3 cycles
//  681         }
//  682         
//  683         
//  684         /****************************************************************************************
//  685         ****************************  Apparent Energy Calculation  ******************************
//  686         ****************************************************************************************/
//  687         if(METERING_MODE == NET)
??power_filter_48:
        CMP       N:_METERING_MODE, #0x1  ;; 1 cycle
        SKZ                          ;; 4 cycles
        BR        N:??power_filter_50  ;; 4 cycles
        ; ------------------------------------- Block: 5 cycles
//  688         {
//  689             r_phase.apparent.acc_delta_cnts += r_phase.apparent.delta_cnts;
        MOVW      DE, #LWRD(_r_phase+176)  ;; 1 cycle
        MOVW      BC, #LWRD(_r_phase+168)  ;; 1 cycle
        MOVW      AX, #LWRD(_r_phase+168)  ;; 1 cycle
          CFI FunCall __Add64
        CALL      __Add64            ;; 3 cycles
//  690             if(r_phase.apparent.acc_delta_cnts >= APP_THRESHOLD)
        MOVW      BC, #LWRD(_APP_THRESHOLD)  ;; 1 cycle
        MOVW      AX, #LWRD(_r_phase+168)  ;; 1 cycle
          CFI FunCall __CmpLtu64
        CALL      __CmpLtu64         ;; 3 cycles
        CMP0      A                  ;; 1 cycle
        BNZ       ??power_filter_51  ;; 4 cycles
        ; ------------------------------------- Block: 16 cycles
//  691             {
//  692                 r_phase.apparent.acc_delta_cnts -= APP_THRESHOLD;
        MOVW      DE, #LWRD(_APP_THRESHOLD)  ;; 1 cycle
        MOVW      BC, #LWRD(_r_phase+168)  ;; 1 cycle
        MOVW      AX, #LWRD(_r_phase+168)  ;; 1 cycle
          CFI FunCall __Sub64
        CALL      __Sub64            ;; 3 cycles
//  693                 apparent_calculation_net(PHASE_R,quadrant.Rph); 
        MOV       X, N:_quadrant     ;; 1 cycle
        MOV       A, #0x0            ;; 1 cycle
          CFI FunCall _apparent_calculation_net
        CALL      _apparent_calculation_net  ;; 3 cycles
        ; ------------------------------------- Block: 11 cycles
//  694             }
//  695             
//  696             y_phase.apparent.acc_delta_cnts += y_phase.apparent.delta_cnts;
??power_filter_51:
        MOVW      DE, #LWRD(_y_phase+176)  ;; 1 cycle
        MOVW      BC, #LWRD(_y_phase+168)  ;; 1 cycle
        MOVW      AX, #LWRD(_y_phase+168)  ;; 1 cycle
          CFI FunCall __Add64
        CALL      __Add64            ;; 3 cycles
//  697             if(y_phase.apparent.acc_delta_cnts >= APP_THRESHOLD)
        MOVW      BC, #LWRD(_APP_THRESHOLD)  ;; 1 cycle
        MOVW      AX, #LWRD(_y_phase+168)  ;; 1 cycle
          CFI FunCall __CmpLtu64
        CALL      __CmpLtu64         ;; 3 cycles
        CMP0      A                  ;; 1 cycle
        BNZ       ??power_filter_52  ;; 4 cycles
        ; ------------------------------------- Block: 16 cycles
//  698             {
//  699                 y_phase.apparent.acc_delta_cnts -= APP_THRESHOLD;
        MOVW      DE, #LWRD(_APP_THRESHOLD)  ;; 1 cycle
        MOVW      BC, #LWRD(_y_phase+168)  ;; 1 cycle
        MOVW      AX, #LWRD(_y_phase+168)  ;; 1 cycle
          CFI FunCall __Sub64
        CALL      __Sub64            ;; 3 cycles
//  700                 apparent_calculation_net(PHASE_Y,quadrant.Yph); 
        MOV       X, N:_quadrant+1   ;; 1 cycle
        MOV       A, #0x1            ;; 1 cycle
          CFI FunCall _apparent_calculation_net
        CALL      _apparent_calculation_net  ;; 3 cycles
        ; ------------------------------------- Block: 11 cycles
//  701             }
//  702             
//  703             b_phase.apparent.acc_delta_cnts += b_phase.apparent.delta_cnts;
??power_filter_52:
        MOVW      DE, #LWRD(_b_phase+176)  ;; 1 cycle
        MOVW      BC, #LWRD(_b_phase+168)  ;; 1 cycle
        MOVW      AX, #LWRD(_b_phase+168)  ;; 1 cycle
          CFI FunCall __Add64
        CALL      __Add64            ;; 3 cycles
//  704             if(b_phase.apparent.acc_delta_cnts >= APP_THRESHOLD)
        MOVW      BC, #LWRD(_APP_THRESHOLD)  ;; 1 cycle
        MOVW      AX, #LWRD(_b_phase+168)  ;; 1 cycle
          CFI FunCall __CmpLtu64
        CALL      __CmpLtu64         ;; 3 cycles
        CMP0      A                  ;; 1 cycle
        BNZ       ??power_filter_50  ;; 4 cycles
        ; ------------------------------------- Block: 16 cycles
//  705             {
//  706                 b_phase.apparent.acc_delta_cnts -= APP_THRESHOLD;
        MOVW      DE, #LWRD(_APP_THRESHOLD)  ;; 1 cycle
        MOVW      BC, #LWRD(_b_phase+168)  ;; 1 cycle
        MOVW      AX, #LWRD(_b_phase+168)  ;; 1 cycle
          CFI FunCall __Sub64
        CALL      __Sub64            ;; 3 cycles
//  707                 apparent_calculation_net(PHASE_B,quadrant.Bph); 
        MOV       X, N:_quadrant+2   ;; 1 cycle
        MOV       A, #0x2            ;; 1 cycle
          CFI FunCall _apparent_calculation_net
        CALL      _apparent_calculation_net  ;; 3 cycles
        ; ------------------------------------- Block: 11 cycles
//  708             }
//  709         }
//  710         
//  711         all_phase.apparent.acc_delta_cnts += all_phase.apparent.delta_cnts_net;
??power_filter_50:
        MOVW      DE, #LWRD(_all_phase+112)  ;; 1 cycle
        MOVW      BC, #LWRD(_all_phase+96)  ;; 1 cycle
        MOVW      AX, #LWRD(_all_phase+96)  ;; 1 cycle
          CFI FunCall __Add64
        CALL      __Add64            ;; 3 cycles
//  712         if(all_phase.apparent.acc_delta_cnts >= APP_THRESHOLD)
        MOVW      BC, #LWRD(_APP_THRESHOLD)  ;; 1 cycle
        MOVW      AX, #LWRD(_all_phase+96)  ;; 1 cycle
          CFI FunCall __CmpLtu64
        CALL      __CmpLtu64         ;; 3 cycles
        CMP0      A                  ;; 1 cycle
        BNZ       ??power_filter_33  ;; 4 cycles
        ; ------------------------------------- Block: 16 cycles
//  713         {
//  714             all_phase.apparent.acc_delta_cnts -= APP_THRESHOLD;
        MOVW      DE, #LWRD(_APP_THRESHOLD)  ;; 1 cycle
        MOVW      BC, #LWRD(_all_phase+96)  ;; 1 cycle
        MOVW      AX, #LWRD(_all_phase+96)  ;; 1 cycle
          CFI FunCall __Sub64
        CALL      __Sub64            ;; 3 cycles
//  715             if(METERING_MODE == FWD)
        CMP0      N:_METERING_MODE   ;; 1 cycle
        BNZ       ??power_filter_33  ;; 4 cycles
        ; ------------------------------------- Block: 11 cycles
//  716             {
//  717                 apparent_calculation_fwd(PHASE_ALL,quadrant.Allph); 
        MOV       X, N:_quadrant+3   ;; 1 cycle
        MOV       A, #0x3            ;; 1 cycle
          CFI FunCall _apparent_calculation_fwd
        CALL      _apparent_calculation_fwd  ;; 3 cycles
        ; ------------------------------------- Block: 5 cycles
//  718             }
//  719             //      LED_RCAL_HIGH;
//  720             //      dispense_rcal=0;
//  721         }
//  722     }
//  723     
//  724     /* Pop MACRx registers */
//  725     MACRH = bkup_macrh;
??power_filter_33:
        MOVW      AX, N:`metrology_function::bkup_macrh`  ;; 1 cycle
        MOVW      0xFFFF2, AX        ;; 1 cycle
//  726     MACRL = bkup_macrl;
        MOVW      AX, N:`metrology_function::bkup_macrl`  ;; 1 cycle
        MOVW      0xFFFF0, AX        ;; 1 cycle
//  727 }
        RET                          ;; 6 cycles
          CFI EndBlock cfiBlock3
        ; ------------------------------------- Block: 10 cycles
        ; ------------------------------------- Total: 3189 cycles
        REQUIRE __A_MACRH
        REQUIRE __A_MACRL
        REQUIRE __A_MULC
        REQUIRE __A_MULR0
        REQUIRE __A_MULR1
        REQUIRE __A_MULR2
        REQUIRE __A_MULR3
        REQUIRE __A_MAC32SL
        REQUIRE __A_MAC32SH
        REQUIRE __A_MULBL
        REQUIRE __A_MULBH
        REQUIRE __A_P4
        REQUIRE __A_P5

        SECTION `.bss`:DATA:REORDER:NOROOT(0)
`metrology_function::dispense_ecal`:
        DS 1

        SECTION `.bss`:DATA:REORDER:NOROOT(0)
`metrology_function::dispense_rcal`:
        DS 1

        SECTION `.bss`:DATA:REORDER:NOROOT(0)
`metrology_function::two_ms_loop_cntr`:
        DS 1

        SECTION `.bss`:DATA:REORDER:NOROOT(1)
`metrology_function::bkup_macrh`:
        DS 2

        SECTION `.bss`:DATA:REORDER:NOROOT(1)
`metrology_function::bkup_macrl`:
        DS 2

        SECTION `.text`:CODE:NOROOT(0)
          CFI Block cfiBlock4 Using cfiCommon0
          CFI Function _active_calculation_net
          CFI NoCalls
        CODE
//  728 void active_calculation_net(us8 phase,us8 quad)
//  729 {
_active_calculation_net:
        ; * Stack frame (at entry) *
        ; Param size: 0
        ; Auto size: 0
        MOV       B, A               ;; 1 cycle
//  730     flag_metro_save_energy = 1;
        SET1      N:_flag_metro1.4   ;; 2 cycles
//  731     if(phase == PHASE_R)
        CMP0      B                  ;; 1 cycle
        BNZ       ??power_filter_53  ;; 4 cycles
        ; ------------------------------------- Block: 8 cycles
//  732     {
//  733         if(quad== Q1 || quad == Q4)
        XCH       A, X               ;; 1 cycle
        CMP       A, #0x1            ;; 1 cycle
        XCH       A, X               ;; 1 cycle
        BZ        ??power_filter_54  ;; 4 cycles
        ; ------------------------------------- Block: 7 cycles
        XCH       A, X               ;; 1 cycle
        CMP       A, #0x4            ;; 1 cycle
        XCH       A, X               ;; 1 cycle
        BNZ       ??power_filter_55  ;; 4 cycles
        ; ------------------------------------- Block: 7 cycles
//  734         {
//  735             energy.Rph.active_imp_pulse++;
??power_filter_54:
        INC       N:_energy          ;; 2 cycles
//  736             energy.Allph.active_imp_pulse++;
        INC       N:_energy+42       ;; 2 cycles
//  737             if(energy.Rph.active_imp_pulse >= PULSE)
        MOV       A, N:_energy       ;; 1 cycle
        CMP       A, #0x6            ;; 1 cycle
        SKNC                         ;; 4 cycles
        BR        N:??power_filter_56  ;; 4 cycles
        ; ------------------------------------- Block: 10 cycles
//  738             {
//  739                 energy.Rph.active_imp_pulse = 0;
        MOV       N:_energy, #0x0    ;; 1 cycle
//  740                 energy.Rph.active_imp += QUANTA;
        MOVW      HL, N:_energy+4    ;; 1 cycle
        MOVW      DE, N:_energy+2    ;; 1 cycle
        XCHW      AX, DE             ;; 1 cycle
        ADDW      AX, #0x5           ;; 1 cycle
        XCHW      AX, DE             ;; 1 cycle
        SKNC
        INCW      HL                 ;; 5 cycles
        XCHW      AX, HL             ;; 1 cycle
        ADDW      AX, #0x0           ;; 1 cycle
        XCHW      AX, HL             ;; 1 cycle
        XCHW      AX, DE             ;; 1 cycle
        MOVW      N:_energy+2, AX    ;; 1 cycle
        XCHW      AX, DE             ;; 1 cycle
        XCHW      AX, HL             ;; 1 cycle
        MOVW      N:_energy+4, AX    ;; 1 cycle
        XCHW      AX, HL             ;; 1 cycle
//  741                 if(bitIsSet(tpr.magnet.flag,event_f) && (MAG_SWITCH_IMAX == 1))
        MOVW      HL, #LWRD(_tpr+32)  ;; 1 cycle
        MOV1      CY, [HL].0         ;; 1 cycle
        SKC                          ;; 4 cycles
        BR        N:??power_filter_56  ;; 4 cycles
        ; ------------------------------------- Block: 26 cycles
//  742                 {
//  743                   energy.Rph.defraud_mag += QUANTA;
        MOVW      HL, N:_energy+12   ;; 1 cycle
        MOVW      DE, N:_energy+10   ;; 1 cycle
        XCHW      AX, DE             ;; 1 cycle
        ADDW      AX, #0x5           ;; 1 cycle
        XCHW      AX, DE             ;; 1 cycle
        SKNC
        INCW      HL                 ;; 5 cycles
        XCHW      AX, HL             ;; 1 cycle
        ADDW      AX, #0x0           ;; 1 cycle
        XCHW      AX, HL             ;; 1 cycle
        XCHW      AX, DE             ;; 1 cycle
        MOVW      N:_energy+10, AX   ;; 1 cycle
        XCHW      AX, DE             ;; 1 cycle
        XCHW      AX, HL             ;; 1 cycle
        MOVW      N:_energy+12, AX   ;; 1 cycle
        XCHW      AX, HL             ;; 1 cycle
        BR        N:??power_filter_56  ;; 3 cycles
        ; ------------------------------------- Block: 22 cycles
//  744                 }
//  745             }
//  746         }
//  747         else
//  748         {
//  749             energy.Rph.active_exp_pulse++;
??power_filter_55:
        INC       N:_energy+1        ;; 2 cycles
//  750             energy.Allph.active_exp_pulse++;
        INC       N:_energy+43       ;; 2 cycles
//  751             if(energy.Rph.active_exp_pulse >= PULSE)
        MOV       A, N:_energy+1     ;; 1 cycle
        CMP       A, #0x6            ;; 1 cycle
        SKNC                         ;; 4 cycles
        BR        N:??power_filter_56  ;; 4 cycles
        ; ------------------------------------- Block: 10 cycles
//  752             {
//  753                 energy.Rph.active_exp_pulse = 0;
        MOV       N:_energy+1, #0x0  ;; 1 cycle
        BR        N:??power_filter_56  ;; 3 cycles
        ; ------------------------------------- Block: 4 cycles
//  754             }
//  755         }
//  756     }
//  757     else if(phase == PHASE_Y)
??power_filter_53:
        XCH       A, B               ;; 1 cycle
        CMP       A, #0x1            ;; 1 cycle
        XCH       A, B               ;; 1 cycle
        BNZ       ??power_filter_57  ;; 4 cycles
        ; ------------------------------------- Block: 7 cycles
//  758     {
//  759         if(quad== Q1 || quad == Q4)
        XCH       A, X               ;; 1 cycle
        CMP       A, #0x1            ;; 1 cycle
        XCH       A, X               ;; 1 cycle
        BZ        ??power_filter_58  ;; 4 cycles
        ; ------------------------------------- Block: 7 cycles
        XCH       A, X               ;; 1 cycle
        CMP       A, #0x4            ;; 1 cycle
        XCH       A, X               ;; 1 cycle
        BNZ       ??power_filter_59  ;; 4 cycles
        ; ------------------------------------- Block: 7 cycles
//  760         {
//  761             energy.Yph.active_imp_pulse++;
??power_filter_58:
        INC       N:_energy+14       ;; 2 cycles
//  762             energy.Allph.active_imp_pulse++;
        INC       N:_energy+42       ;; 2 cycles
//  763             if(energy.Yph.active_imp_pulse >= PULSE)
        MOV       A, N:_energy+14    ;; 1 cycle
        CMP       A, #0x6            ;; 1 cycle
        SKNC                         ;; 4 cycles
        BR        N:??power_filter_56  ;; 4 cycles
        ; ------------------------------------- Block: 10 cycles
//  764             {
//  765                 energy.Yph.active_imp_pulse = 0;
        MOV       N:_energy+14, #0x0  ;; 1 cycle
//  766                 energy.Yph.active_imp += QUANTA;
        MOVW      HL, N:_energy+18   ;; 1 cycle
        MOVW      DE, N:_energy+16   ;; 1 cycle
        XCHW      AX, DE             ;; 1 cycle
        ADDW      AX, #0x5           ;; 1 cycle
        XCHW      AX, DE             ;; 1 cycle
        SKNC
        INCW      HL                 ;; 5 cycles
        XCHW      AX, HL             ;; 1 cycle
        ADDW      AX, #0x0           ;; 1 cycle
        XCHW      AX, HL             ;; 1 cycle
        XCHW      AX, DE             ;; 1 cycle
        MOVW      N:_energy+16, AX   ;; 1 cycle
        XCHW      AX, DE             ;; 1 cycle
        XCHW      AX, HL             ;; 1 cycle
        MOVW      N:_energy+18, AX   ;; 1 cycle
        XCHW      AX, HL             ;; 1 cycle
//  767                 if(bitIsSet(tpr.magnet.flag,event_f) && (MAG_SWITCH_IMAX == 1))
        MOVW      HL, #LWRD(_tpr+32)  ;; 1 cycle
        MOV1      CY, [HL].0         ;; 1 cycle
        SKC                          ;; 4 cycles
        BR        N:??power_filter_56  ;; 4 cycles
        ; ------------------------------------- Block: 26 cycles
//  768                 {
//  769                   energy.Yph.defraud_mag += QUANTA;
        MOVW      HL, N:_energy+26   ;; 1 cycle
        MOVW      DE, N:_energy+24   ;; 1 cycle
        XCHW      AX, DE             ;; 1 cycle
        ADDW      AX, #0x5           ;; 1 cycle
        XCHW      AX, DE             ;; 1 cycle
        SKNC
        INCW      HL                 ;; 5 cycles
        XCHW      AX, HL             ;; 1 cycle
        ADDW      AX, #0x0           ;; 1 cycle
        XCHW      AX, HL             ;; 1 cycle
        XCHW      AX, DE             ;; 1 cycle
        MOVW      N:_energy+24, AX   ;; 1 cycle
        XCHW      AX, DE             ;; 1 cycle
        XCHW      AX, HL             ;; 1 cycle
        MOVW      N:_energy+26, AX   ;; 1 cycle
        XCHW      AX, HL             ;; 1 cycle
        BR        N:??power_filter_56  ;; 3 cycles
        ; ------------------------------------- Block: 22 cycles
//  770                 }
//  771             }
//  772         }
//  773         else
//  774         {
//  775             energy.Yph.active_exp_pulse++;
??power_filter_59:
        INC       N:_energy+15       ;; 2 cycles
//  776             energy.Allph.active_exp_pulse++;
        INC       N:_energy+43       ;; 2 cycles
//  777             if(energy.Yph.active_exp_pulse >= PULSE)
        MOV       A, N:_energy+15    ;; 1 cycle
        CMP       A, #0x6            ;; 1 cycle
        BC        ??power_filter_56  ;; 4 cycles
        ; ------------------------------------- Block: 10 cycles
//  778             {
//  779                 energy.Yph.active_exp_pulse = 0;
        MOV       N:_energy+15, #0x0  ;; 1 cycle
        BR        S:??power_filter_56  ;; 3 cycles
        ; ------------------------------------- Block: 4 cycles
//  780             }
//  781         }
//  782     }
//  783     else if(phase == PHASE_B)
??power_filter_57:
        XCH       A, B               ;; 1 cycle
        CMP       A, #0x2            ;; 1 cycle
        XCH       A, B               ;; 1 cycle
        BNZ       ??power_filter_56  ;; 4 cycles
        ; ------------------------------------- Block: 7 cycles
//  784     {
//  785         if(quad== Q1 || quad == Q4)
        XCH       A, X               ;; 1 cycle
        CMP       A, #0x1            ;; 1 cycle
        XCH       A, X               ;; 1 cycle
        BZ        ??power_filter_60  ;; 4 cycles
        ; ------------------------------------- Block: 7 cycles
        XCH       A, X               ;; 1 cycle
        CMP       A, #0x4            ;; 1 cycle
        XCH       A, X               ;; 1 cycle
        BNZ       ??power_filter_61  ;; 4 cycles
        ; ------------------------------------- Block: 7 cycles
//  786         {
//  787             energy.Bph.active_imp_pulse++;
??power_filter_60:
        INC       N:_energy+28       ;; 2 cycles
//  788             energy.Allph.active_imp_pulse++;
        INC       N:_energy+42       ;; 2 cycles
//  789             if(energy.Bph.active_imp_pulse >= PULSE)
        MOV       A, N:_energy+28    ;; 1 cycle
        CMP       A, #0x6            ;; 1 cycle
        BC        ??power_filter_56  ;; 4 cycles
        ; ------------------------------------- Block: 10 cycles
//  790             {
//  791                 energy.Bph.active_imp_pulse = 0;
        MOV       N:_energy+28, #0x0  ;; 1 cycle
//  792                 energy.Bph.active_imp += QUANTA;
        MOVW      HL, N:_energy+32   ;; 1 cycle
        MOVW      DE, N:_energy+30   ;; 1 cycle
        XCHW      AX, DE             ;; 1 cycle
        ADDW      AX, #0x5           ;; 1 cycle
        XCHW      AX, DE             ;; 1 cycle
        SKNC
        INCW      HL                 ;; 5 cycles
        XCHW      AX, HL             ;; 1 cycle
        ADDW      AX, #0x0           ;; 1 cycle
        XCHW      AX, HL             ;; 1 cycle
        XCHW      AX, DE             ;; 1 cycle
        MOVW      N:_energy+30, AX   ;; 1 cycle
        XCHW      AX, DE             ;; 1 cycle
        XCHW      AX, HL             ;; 1 cycle
        MOVW      N:_energy+32, AX   ;; 1 cycle
        XCHW      AX, HL             ;; 1 cycle
//  793                 if(bitIsSet(tpr.magnet.flag,event_f) && (MAG_SWITCH_IMAX == 1))
        MOVW      HL, #LWRD(_tpr+32)  ;; 1 cycle
        MOV1      CY, [HL].0         ;; 1 cycle
        BNC       ??power_filter_56  ;; 4 cycles
        ; ------------------------------------- Block: 26 cycles
//  794                 {
//  795                   energy.Bph.defraud_mag += QUANTA;
        MOVW      HL, N:_energy+40   ;; 1 cycle
        MOVW      DE, N:_energy+38   ;; 1 cycle
        XCHW      AX, DE             ;; 1 cycle
        ADDW      AX, #0x5           ;; 1 cycle
        XCHW      AX, DE             ;; 1 cycle
        SKNC
        INCW      HL                 ;; 5 cycles
        XCHW      AX, HL             ;; 1 cycle
        ADDW      AX, #0x0           ;; 1 cycle
        XCHW      AX, HL             ;; 1 cycle
        XCHW      AX, DE             ;; 1 cycle
        MOVW      N:_energy+38, AX   ;; 1 cycle
        XCHW      AX, DE             ;; 1 cycle
        XCHW      AX, HL             ;; 1 cycle
        MOVW      N:_energy+40, AX   ;; 1 cycle
        XCHW      AX, HL             ;; 1 cycle
        BR        S:??power_filter_56  ;; 3 cycles
        ; ------------------------------------- Block: 22 cycles
//  796                 }
//  797             }
//  798         }
//  799         else
//  800         {
//  801             energy.Bph.active_exp_pulse++;
??power_filter_61:
        INC       N:_energy+29       ;; 2 cycles
//  802             energy.Allph.active_exp_pulse++;
        INC       N:_energy+43       ;; 2 cycles
//  803             if(energy.Bph.active_exp_pulse >= PULSE)
        MOV       A, N:_energy+29    ;; 1 cycle
        CMP       A, #0x6            ;; 1 cycle
        SKC                          ;; 1 cycle
        ; ------------------------------------- Block: 7 cycles
//  804             {
//  805                 energy.Bph.active_exp_pulse = 0;
        MOV       N:_energy+29, #0x0  ;; 1 cycle
        ; ------------------------------------- Block: 1 cycles
//  806             }
//  807         }
//  808     }
//  809     if(energy.Allph.active_imp_pulse >= PULSE)
??power_filter_56:
        MOV       A, N:_energy+42    ;; 1 cycle
        CMP       A, #0x6            ;; 1 cycle
        BC        ??power_filter_62  ;; 4 cycles
        ; ------------------------------------- Block: 6 cycles
//  810     {
//  811         energy.Allph.active_imp_pulse = 0;
        MOV       N:_energy+42, #0x0  ;; 1 cycle
//  812         energy.Allph.active_imp += QUANTA;
        MOVW      HL, N:_energy+54   ;; 1 cycle
        MOVW      DE, N:_energy+52   ;; 1 cycle
        XCHW      AX, DE             ;; 1 cycle
        ADDW      AX, #0x5           ;; 1 cycle
        XCHW      AX, DE             ;; 1 cycle
        SKNC
        INCW      HL                 ;; 5 cycles
        XCHW      AX, HL             ;; 1 cycle
        ADDW      AX, #0x0           ;; 1 cycle
        XCHW      AX, HL             ;; 1 cycle
        XCHW      AX, DE             ;; 1 cycle
        MOVW      N:_energy+52, AX   ;; 1 cycle
        XCHW      AX, DE             ;; 1 cycle
        XCHW      AX, HL             ;; 1 cycle
        MOVW      N:_energy+54, AX   ;; 1 cycle
        XCHW      AX, HL             ;; 1 cycle
//  813         energy.Allph.zkwh_imp += QUANTA;
        MOVW      HL, N:_energy+94   ;; 1 cycle
        MOVW      DE, N:_energy+92   ;; 1 cycle
        XCHW      AX, DE             ;; 1 cycle
        ADDW      AX, #0x5           ;; 1 cycle
        XCHW      AX, DE             ;; 1 cycle
        SKNC
        INCW      HL                 ;; 5 cycles
        XCHW      AX, HL             ;; 1 cycle
        ADDW      AX, #0x0           ;; 1 cycle
        XCHW      AX, HL             ;; 1 cycle
        XCHW      AX, DE             ;; 1 cycle
        MOVW      N:_energy+92, AX   ;; 1 cycle
        XCHW      AX, DE             ;; 1 cycle
        XCHW      AX, HL             ;; 1 cycle
        MOVW      N:_energy+94, AX   ;; 1 cycle
        XCHW      AX, HL             ;; 1 cycle
//  814         if(bitIsSet(tpr.magnet.flag,event_f) && (MAG_SWITCH_IMAX == 1))
        MOVW      HL, #LWRD(_tpr+32)  ;; 1 cycle
        MOV1      CY, [HL].0         ;; 1 cycle
        BNC       ??power_filter_62  ;; 4 cycles
        ; ------------------------------------- Block: 45 cycles
//  815         {
//  816             energy.Allph.defraud_mag += QUANTA;
        MOVW      HL, N:_energy+62   ;; 1 cycle
        MOVW      DE, N:_energy+60   ;; 1 cycle
        XCHW      AX, DE             ;; 1 cycle
        ADDW      AX, #0x5           ;; 1 cycle
        XCHW      AX, DE             ;; 1 cycle
        SKNC
        INCW      HL                 ;; 5 cycles
        XCHW      AX, HL             ;; 1 cycle
        ADDW      AX, #0x0           ;; 1 cycle
        XCHW      AX, HL             ;; 1 cycle
        XCHW      AX, DE             ;; 1 cycle
        MOVW      N:_energy+60, AX   ;; 1 cycle
        XCHW      AX, DE             ;; 1 cycle
        XCHW      AX, HL             ;; 1 cycle
        MOVW      N:_energy+62, AX   ;; 1 cycle
        XCHW      AX, HL             ;; 1 cycle
        ; ------------------------------------- Block: 19 cycles
//  817         }
//  818     }
//  819     if(energy.Allph.active_exp_pulse >= PULSE)
??power_filter_62:
        MOV       A, N:_energy+43    ;; 1 cycle
        CMP       A, #0x6            ;; 1 cycle
        BC        ??power_filter_63  ;; 4 cycles
        ; ------------------------------------- Block: 6 cycles
//  820     {
//  821         energy.Allph.active_exp_pulse = 0;
        MOV       N:_energy+43, #0x0  ;; 1 cycle
//  822         energy.Allph.active_exp += QUANTA;
        MOVW      HL, N:_energy+58   ;; 1 cycle
        MOVW      DE, N:_energy+56   ;; 1 cycle
        XCHW      AX, DE             ;; 1 cycle
        ADDW      AX, #0x5           ;; 1 cycle
        XCHW      AX, DE             ;; 1 cycle
        SKNC
        INCW      HL                 ;; 5 cycles
        XCHW      AX, HL             ;; 1 cycle
        ADDW      AX, #0x0           ;; 1 cycle
        XCHW      AX, HL             ;; 1 cycle
        XCHW      AX, DE             ;; 1 cycle
        MOVW      N:_energy+56, AX   ;; 1 cycle
        XCHW      AX, DE             ;; 1 cycle
        XCHW      AX, HL             ;; 1 cycle
        MOVW      N:_energy+58, AX   ;; 1 cycle
        XCHW      AX, HL             ;; 1 cycle
//  823         energy.Allph.zkwh_exp += QUANTA;
        MOVW      HL, N:_energy+98   ;; 1 cycle
        MOVW      DE, N:_energy+96   ;; 1 cycle
        XCHW      AX, DE             ;; 1 cycle
        ADDW      AX, #0x5           ;; 1 cycle
        XCHW      AX, DE             ;; 1 cycle
        SKNC
        INCW      HL                 ;; 5 cycles
        XCHW      AX, HL             ;; 1 cycle
        ADDW      AX, #0x0           ;; 1 cycle
        XCHW      AX, HL             ;; 1 cycle
        XCHW      AX, DE             ;; 1 cycle
        MOVW      N:_energy+96, AX   ;; 1 cycle
        XCHW      AX, DE             ;; 1 cycle
        XCHW      AX, HL             ;; 1 cycle
        MOVW      N:_energy+98, AX   ;; 1 cycle
        XCHW      AX, HL             ;; 1 cycle
        ; ------------------------------------- Block: 39 cycles
//  824     }
//  825 }
??power_filter_63:
        RET                          ;; 6 cycles
          CFI EndBlock cfiBlock4
        ; ------------------------------------- Block: 6 cycles
        ; ------------------------------------- Total: 395 cycles

        SECTION `.text`:CODE:NOROOT(0)
          CFI Block cfiBlock5 Using cfiCommon0
          CFI Function _active_calculation_fwd
          CFI NoCalls
        CODE
//  826 void active_calculation_fwd(us8 phase,us8 quad)
//  827 {
_active_calculation_fwd:
        ; * Stack frame (at entry) *
        ; Param size: 0
        ; Auto size: 0
        MOV       B, A               ;; 1 cycle
        XCH       A, X               ;; 1 cycle
        MOV       C, A               ;; 1 cycle
        XCH       A, X               ;; 1 cycle
//  828     flag_metro_save_energy = 1;
        SET1      N:_flag_metro1.4   ;; 2 cycles
//  829     
//  830     if(phase == PHASE_R)
        CMP0      B                  ;; 1 cycle
        BNZ       ??power_filter_64  ;; 4 cycles
        ; ------------------------------------- Block: 11 cycles
//  831     {
//  832         energy.Rph.active_imp_pulse++;
        INC       N:_energy          ;; 2 cycles
//  833         if(energy.Rph.active_imp_pulse >= PULSE)
        MOV       A, N:_energy       ;; 1 cycle
        CMP       A, #0x6            ;; 1 cycle
        SKNC                         ;; 4 cycles
        BR        N:??power_filter_65  ;; 4 cycles
        ; ------------------------------------- Block: 8 cycles
//  834         {
//  835           energy.Rph.active_imp_pulse = 0;
        MOV       N:_energy, #0x0    ;; 1 cycle
//  836           energy.Rph.active_imp += QUANTA;
        MOVW      HL, N:_energy+4    ;; 1 cycle
        MOVW      DE, N:_energy+2    ;; 1 cycle
        XCHW      AX, DE             ;; 1 cycle
        ADDW      AX, #0x5           ;; 1 cycle
        XCHW      AX, DE             ;; 1 cycle
        SKNC
        INCW      HL                 ;; 5 cycles
        XCHW      AX, HL             ;; 1 cycle
        ADDW      AX, #0x0           ;; 1 cycle
        XCHW      AX, HL             ;; 1 cycle
        XCHW      AX, DE             ;; 1 cycle
        MOVW      N:_energy+2, AX    ;; 1 cycle
        XCHW      AX, DE             ;; 1 cycle
        XCHW      AX, HL             ;; 1 cycle
        MOVW      N:_energy+4, AX    ;; 1 cycle
        XCHW      AX, HL             ;; 1 cycle
//  837           if(bitIsSet(tpr.magnet.flag,event_f) && (MAG_SWITCH_IMAX == 1))
        MOVW      HL, #LWRD(_tpr+32)  ;; 1 cycle
        MOV1      CY, [HL].0         ;; 1 cycle
        SKC                          ;; 4 cycles
        BR        N:??power_filter_65  ;; 4 cycles
        ; ------------------------------------- Block: 26 cycles
//  838           {
//  839             energy.Rph.defraud_mag += QUANTA;
        MOVW      HL, N:_energy+12   ;; 1 cycle
        MOVW      DE, N:_energy+10   ;; 1 cycle
        XCHW      AX, DE             ;; 1 cycle
        ADDW      AX, #0x5           ;; 1 cycle
        XCHW      AX, DE             ;; 1 cycle
        SKNC
        INCW      HL                 ;; 5 cycles
        XCHW      AX, HL             ;; 1 cycle
        ADDW      AX, #0x0           ;; 1 cycle
        XCHW      AX, HL             ;; 1 cycle
        XCHW      AX, DE             ;; 1 cycle
        MOVW      N:_energy+10, AX   ;; 1 cycle
        XCHW      AX, DE             ;; 1 cycle
        XCHW      AX, HL             ;; 1 cycle
        MOVW      N:_energy+12, AX   ;; 1 cycle
        XCHW      AX, HL             ;; 1 cycle
        RET                          ;; 6 cycles
        ; ------------------------------------- Block: 25 cycles
//  840           }
//  841         }
//  842     }
//  843     else if(phase == PHASE_Y)
??power_filter_64:
        XCH       A, B               ;; 1 cycle
        CMP       A, #0x1            ;; 1 cycle
        XCH       A, B               ;; 1 cycle
        BNZ       ??power_filter_66  ;; 4 cycles
        ; ------------------------------------- Block: 7 cycles
//  844     {
//  845         energy.Yph.active_imp_pulse++;
        INC       N:_energy+14       ;; 2 cycles
//  846         if(energy.Yph.active_imp_pulse >= PULSE)
        MOV       A, N:_energy+14    ;; 1 cycle
        CMP       A, #0x6            ;; 1 cycle
        SKNC                         ;; 4 cycles
        BR        N:??power_filter_65  ;; 4 cycles
        ; ------------------------------------- Block: 8 cycles
//  847         {
//  848             energy.Yph.active_imp_pulse = 0;
        MOV       N:_energy+14, #0x0  ;; 1 cycle
//  849             energy.Yph.active_imp += QUANTA;
        MOVW      HL, N:_energy+18   ;; 1 cycle
        MOVW      DE, N:_energy+16   ;; 1 cycle
        XCHW      AX, DE             ;; 1 cycle
        ADDW      AX, #0x5           ;; 1 cycle
        XCHW      AX, DE             ;; 1 cycle
        SKNC
        INCW      HL                 ;; 5 cycles
        XCHW      AX, HL             ;; 1 cycle
        ADDW      AX, #0x0           ;; 1 cycle
        XCHW      AX, HL             ;; 1 cycle
        XCHW      AX, DE             ;; 1 cycle
        MOVW      N:_energy+16, AX   ;; 1 cycle
        XCHW      AX, DE             ;; 1 cycle
        XCHW      AX, HL             ;; 1 cycle
        MOVW      N:_energy+18, AX   ;; 1 cycle
        XCHW      AX, HL             ;; 1 cycle
//  850             if(bitIsSet(tpr.magnet.flag,event_f) && (MAG_SWITCH_IMAX == 1))
        MOVW      HL, #LWRD(_tpr+32)  ;; 1 cycle
        MOV1      CY, [HL].0         ;; 1 cycle
        SKC                          ;; 4 cycles
        BR        N:??power_filter_65  ;; 4 cycles
        ; ------------------------------------- Block: 26 cycles
//  851             {
//  852               energy.Yph.defraud_mag += QUANTA;
        MOVW      HL, N:_energy+26   ;; 1 cycle
        MOVW      DE, N:_energy+24   ;; 1 cycle
        XCHW      AX, DE             ;; 1 cycle
        ADDW      AX, #0x5           ;; 1 cycle
        XCHW      AX, DE             ;; 1 cycle
        SKNC
        INCW      HL                 ;; 5 cycles
        XCHW      AX, HL             ;; 1 cycle
        ADDW      AX, #0x0           ;; 1 cycle
        XCHW      AX, HL             ;; 1 cycle
        XCHW      AX, DE             ;; 1 cycle
        MOVW      N:_energy+24, AX   ;; 1 cycle
        XCHW      AX, DE             ;; 1 cycle
        XCHW      AX, HL             ;; 1 cycle
        MOVW      N:_energy+26, AX   ;; 1 cycle
        XCHW      AX, HL             ;; 1 cycle
        RET                          ;; 6 cycles
        ; ------------------------------------- Block: 25 cycles
//  853             }
//  854         }
//  855     }
//  856     else if(phase == PHASE_B)
??power_filter_66:
        XCH       A, B               ;; 1 cycle
        CMP       A, #0x2            ;; 1 cycle
        XCH       A, B               ;; 1 cycle
        BNZ       ??power_filter_67  ;; 4 cycles
        ; ------------------------------------- Block: 7 cycles
//  857     {
//  858         energy.Bph.active_imp_pulse++;
        INC       N:_energy+28       ;; 2 cycles
//  859         if(energy.Bph.active_imp_pulse >= PULSE)
